(inltk.tagger
BackoffTagger
p1
(dp2
S'_total_count'
p3
I0
sS'_subtagger_count'
p4
(dp5
(inltk.tagger
DefaultTagger
p6
(dp7
S'_PropertyIndirectionMixIn__property_names'
p8
(dp9
S'TEXT'
p10
S'STEM'
p11
sS'TAG'
p12
S'SENSE'
p13
ssS'_tag'
p14
S'APPEAR'
p15
sS'_reverse'
p16
I00
sbI0
s(inltk.tagger
UnigramTagger
p17
(dp18
g8
(dp19
g10
g11
sg12
g13
ssS'_freqdist'
p20
(inltk.probability
ConditionalFreqDist
p21
(dp22
S'_fdists'
p23
(dp24
S'all'
p25
(inltk.probability
FreqDist
p26
(dp27
S'_N'
p28
I190
sS'_count'
p29
(dp30
S'COUNT'
p31
I4
sS'DIST'
p32
I171
sS'META'
p33
I3
sS'DET'
p34
I12
ssS'_max_cache'
p35
NsS'_Nr_cache'
p36
NsbsS'windi'
p37
(inltk.probability
FreqDist
p38
(dp39
g28
I1
sg29
(dp40
S'STRUCTURAL'
p41
I1
ssg35
Nsg36
NsbsS'yellow'
p42
(inltk.probability
FreqDist
p43
(dp44
g28
I309
sg29
(dp45
S'APPEAR'
p46
I309
ssg35
Nsg36
NsbsS'four'
p47
(inltk.probability
FreqDist
p48
(dp49
g28
I67
sg29
(dp50
S'COUNT'
p51
I52
sS'P'
I15
ssg35
Nsg36
NsbsS'doen'
p52
(inltk.probability
FreqDist
p53
(dp54
g28
I1
sg29
(dp55
S'ALONG'
p56
I1
ssg35
Nsg36
NsbsS'abil'
p57
(inltk.probability
FreqDist
p58
(dp59
g28
I3
sg29
(dp60
S'OBJ'
p61
I1
sS'PATHDIR'
p62
I2
ssg35
Nsg36
NsbsS'furnitur'
p63
(inltk.probability
FreqDist
p64
(dp65
g28
I38
sg29
(dp66
S'OBJ'
p67
I38
ssg35
Nsg36
NsbsS'go'
p68
(inltk.probability
FreqDist
p69
(dp70
g28
I1352
sg29
(dp71
S'TURN'
p72
I75
sS'TRAVEL'
p73
I1268
sS'META'
p74
I2
sS'DIST'
p75
I1
sS'AUX'
p76
I6
ssg35
Nsg36
NsbsS'follow'
p77
(inltk.probability
FreqDist
p78
(dp79
g28
I193
sg29
(dp80
S'ALONG'
p81
I3
sS'LOC'
p82
I1
sS'TRAVEL'
p83
I186
sS'ORDER'
p84
I2
sS'FOLLOW'
p85
I1
ssg35
Nsg36
NsbsS'chair'
p86
(inltk.probability
FreqDist
p87
(dp88
g28
I289
sg29
(dp89
S'OBJ'
p90
I289
ssg35
Nsg36
NsbsS'carpet'
p91
(inltk.probability
FreqDist
p92
(dp93
g28
I204
sg29
(dp94
S'PATH'
p95
I91
sS'OBJ'
p96
I98
sS'APPEAR'
p97
I15
ssg35
Nsg36
NsbsS'whose'
p98
(inltk.probability
FreqDist
p99
(dp100
g28
I2
sg29
(dp101
S'DETAIL'
p102
I2
ssg35
Nsg36
NsbsS'middl'
p103
(inltk.probability
FreqDist
p104
(dp105
g28
I46
sg29
(dp106
S'STRUCT'
p107
I40
sS'STRUCTURAL'
p108
I6
ssg35
Nsg36
NsbsS'proxim'
p109
(inltk.probability
FreqDist
p110
(dp111
g28
I1
sg29
(dp112
S'RELDIST'
p113
I1
ssg35
Nsg36
NsbsS'to'
p114
(inltk.probability
FreqDist
p115
(dp116
g28
I1710
sg29
(dp117
S'FIND'
p118
I3
sS'LOC'
p119
I9
sS'ARRIVE'
p120
I222
sS'STRUCT'
p121
I10
sS'CC'
p122
I1
sS'AGAINST'
p123
I115
sS'SIDE'
p124
I288
sg74
I5
sS'PURPOSE'
p125
I100
sS'REL'
p126
I7
sS'INF'
p127
I25
sS'AUX'
p128
I28
sS'ALONG'
p129
I2
sS'TOWARD'
p130
I14
sS'ONTO'
p131
I10
sS'UNTIL'
p132
I868
sS'BEFORE'
p133
I3
ssg35
Nsg36
NsbsS'concret'
p134
(inltk.probability
FreqDist
p135
(dp136
g28
I74
sg29
(dp137
S'APPEAR'
p138
I74
ssg35
Nsg36
NsbsS'present'
p139
(inltk.probability
FreqDist
p140
(dp141
g28
I1
sg29
(dp142
S'LOC'
p143
I1
ssg35
Nsg36
NsbsS'th'
p144
(inltk.probability
FreqDist
p145
(dp146
g28
I2
sg29
(dp147
S'DET'
p148
I2
ssg35
Nsg36
NsbsS'ti'
p149
(inltk.probability
FreqDist
p150
(dp151
g28
I1
sg29
(dp152
S'UNTIL'
p153
I1
ssg35
Nsg36
NsbsS'leav'
p154
(inltk.probability
FreqDist
p155
(dp156
g28
I4
sg29
(dp157
S'EXIT'
p158
I4
ssg35
Nsg36
NsbsS'wall'
p159
(inltk.probability
FreqDist
p160
(dp161
g28
I585
sg29
(dp162
S'OBJ'
p163
I573
sS'APPEAR'
p164
I12
ssg35
Nsg36
NsbsS'brown'
p165
(inltk.probability
FreqDist
p166
(dp167
g28
I46
sg29
(dp168
S'APPEAR'
p169
I46
ssg35
Nsg36
NsbsS'postion'
p170
(inltk.probability
FreqDist
p171
(dp172
g28
I35
sg29
(dp173
S'POS'
p174
I35
ssg35
Nsg36
NsbsS'whichev'
p175
(inltk.probability
FreqDist
p176
(dp177
g28
I1
sg29
(dp178
S'DET'
p179
I1
ssg35
Nsg36
NsbsS'far'
p180
(inltk.probability
FreqDist
p181
(dp182
g28
I16
sg29
(dp183
S'RELDIST'
p184
I13
sS'DIST'
p185
I3
ssg35
Nsg36
NsbsS'barstool'
p186
(inltk.probability
FreqDist
p187
(dp188
g28
I6
sg29
(dp189
S'OBJ'
p190
I6
ssg35
Nsg36
NsbsS'util'
p191
(inltk.probability
FreqDist
p192
(dp193
g28
I1
sg29
(dp194
S'UNTIL'
p195
I1
ssg35
Nsg36
NsbsS'veri'
p196
(inltk.probability
FreqDist
p197
(dp198
g28
I36
sg29
(dp199
S'ADV'
p200
I36
ssg35
Nsg36
NsbsS'tri'
p201
(inltk.probability
FreqDist
p202
(dp203
g28
I3
sg29
(dp204
S'AUX'
p205
I3
ssg35
Nsg36
NsbsS'`'
(inltk.probability
FreqDist
p206
(dp207
g28
I1
sg29
(dp208
S'ACROSS'
p209
I1
ssg35
Nsg36
NsbsS'wooden'
p210
(inltk.probability
FreqDist
p211
(dp212
g28
I68
sg29
(dp213
S'APPEAR'
p214
I68
ssg35
Nsg36
NsbsS'this'
p215
(inltk.probability
FreqDist
p216
(dp217
g28
I721
sg29
(dp218
S'REF'
p219
I382
sS'META'
p220
I3
sS'DET'
p221
I336
ssg35
Nsg36
NsbsS'sexton'
p222
(inltk.probability
FreqDist
p223
(dp224
g28
I1
sg29
(dp225
S'PATHDIR'
p226
I1
ssg35
Nsg36
NsbsS'quick'
p227
(inltk.probability
FreqDist
p228
(dp229
g28
I2
sg29
(dp230
S'ORDER'
p231
I2
ssg35
Nsg36
NsbsS'wawya'
p232
(inltk.probability
FreqDist
p233
(dp234
g28
I1
sg29
(dp235
S'AWAY'
p236
I1
ssg35
Nsg36
NsbsS'intesect'
p237
(inltk.probability
FreqDist
p238
(dp239
g28
I1
sg29
(dp240
S'STRUCT'
p241
I1
ssg35
Nsg36
NsbsS'teh'
p242
(inltk.probability
FreqDist
p243
(dp244
g28
I9
sg29
(dp245
S'DET'
p246
I9
ssg35
Nsg36
NsbsS'direct'
p247
(inltk.probability
FreqDist
p248
(dp249
g28
I149
sg29
(dp250
S'TEXT'
p251
I2
sS'TOWARD'
p252
I25
sS'META'
p253
I4
sS'PATHDIR'
p254
I118
ssg35
Nsg36
NsbsS'past'
p255
(inltk.probability
FreqDist
p256
(dp257
g28
I122
sg29
(dp258
S'PAST'
p259
I122
ssg35
Nsg36
NsbsS'second'
p260
(inltk.probability
FreqDist
p261
(dp262
g28
I51
sg29
(dp263
S'DIST'
p264
I1
sS'ORDER'
p265
I50
ssg35
Nsg36
NsbsS'street'
p266
(inltk.probability
FreqDist
p267
(dp268
g28
I12
sg29
(dp269
S'PATH'
p270
I12
ssg35
Nsg36
NsbsS'design'
p271
(inltk.probability
FreqDist
p272
(dp273
g28
I5
sg29
(dp274
S'HAS'
p275
I3
sS'OBJ'
p276
I2
ssg35
Nsg36
NsbsS'pass'
p277
(inltk.probability
FreqDist
p278
(dp279
g28
I81
sg29
(dp280
S'PAST'
p281
I52
sS'PASS'
p282
I29
ssg35
Nsg36
NsbsS'further'
p283
(inltk.probability
FreqDist
p284
(dp285
g28
I4
sg29
(dp286
S'DIST'
p287
I4
ssg35
Nsg36
NsbsS'click'
p288
(inltk.probability
FreqDist
p289
(dp290
g28
I1
sg29
(dp291
S'DIST'
p292
I1
ssg35
Nsg36
NsbsS'blue'
p293
(inltk.probability
FreqDist
p294
(dp295
g28
I670
sg29
(dp296
S'APPEAR'
p297
I670
ssg35
Nsg36
NsbsS'what'
p298
(inltk.probability
FreqDist
p299
(dp300
g28
I4
sg29
(dp301
S'APPROX'
p302
I2
sS'META'
p303
I2
ssg35
Nsg36
NsbsS'appear'
p304
(inltk.probability
FreqDist
p305
(dp306
g28
I2
sg29
(dp307
S'STRUCT'
p308
I2
ssg35
Nsg36
NsbsS'interseciton'
p309
(inltk.probability
FreqDist
p310
(dp311
g28
I1
sg29
(dp312
S'STRUCT'
p313
I1
ssg35
Nsg36
NsbsS'section'
p314
(inltk.probability
FreqDist
p315
(dp316
g28
I85
sg29
(dp317
S'PATHDIR'
p318
I63
sS'STRUCT'
p319
I22
ssg35
Nsg36
NsbsS'colorless'
p320
(inltk.probability
FreqDist
p321
(dp322
g28
I1
sg29
(dp323
S'APPEAR'
p324
I1
ssg35
Nsg36
NsbsS'abl'
p325
(inltk.probability
FreqDist
p326
(dp327
g28
I8
sg29
(dp328
g128
I8
ssg35
Nsg36
NsbsS'near'
p329
(inltk.probability
FreqDist
p330
(dp331
g28
I7
sg29
(dp332
S'LOC'
p333
I7
ssg35
Nsg36
NsbsS'antoh'
p334
(inltk.probability
FreqDist
p335
(dp336
g28
I1
sg29
(dp337
S'DET'
p338
I1
ssg35
Nsg36
NsbsS'current'
p339
(inltk.probability
FreqDist
p340
(dp341
g28
I3
sg29
(dp342
S'TEXT'
p343
I3
ssg35
Nsg36
NsbsS'intersect'
p344
(inltk.probability
FreqDist
p345
(dp346
g28
I1005
sg29
(dp347
S'PATH'
p348
I1
sS'ARRIVE'
p349
I49
sS'DIST'
p350
I1
sS'STRUCT'
p351
I952
sS'STRUCTURAL'
p352
I2
ssg35
Nsg36
NsbsS'new'
p353
(inltk.probability
FreqDist
p354
(dp355
g28
I1
sg29
(dp356
S'RELDIST'
p357
I1
ssg35
Nsg36
NsbsS';'
(inltk.probability
FreqDist
p358
(dp359
g28
I5
sg29
(dp360
S'PUNCT'
p361
I5
ssg35
Nsg36
NsbsS'ever'
p362
(inltk.probability
FreqDist
p363
(dp364
g28
I1
sg29
(dp365
S'DET'
p366
I1
ssg35
Nsg36
NsbsS'movement'
p367
(inltk.probability
FreqDist
p368
(dp369
g28
I20
sg29
(dp370
S'DIST'
p371
I20
ssg35
Nsg36
NsbsS'lampl'
p372
(inltk.probability
FreqDist
p373
(dp374
g28
I1
sg29
(dp375
S'OBJ'
p376
I1
ssg35
Nsg36
NsbsS'abov'
p377
(inltk.probability
FreqDist
p378
(dp379
g28
I1
sg29
(dp380
S'TEXT'
p381
I1
ssg35
Nsg36
NsbsS'leg'
p382
(inltk.probability
FreqDist
p383
(dp384
g28
I2
sg29
(dp385
S'PATHDIR'
p386
I2
ssg35
Nsg36
NsbsS'situat'
p387
(inltk.probability
FreqDist
p388
(dp389
g28
I1
sg29
(dp390
S'ORIENT'
p391
I1
ssg35
Nsg36
NsbsS'K'
(inltk.probability
FreqDist
p392
(dp393
g28
I3003
sg29
(dp394
S''
I1
sS'LOC'
p395
I138
sS'APPROX'
p396
I5
sS'DIST'
p397
I87
sS'PATHDIR'
p398
I59
sS'THEN'
p399
I26
sS'TEXT'
p400
I7
sS'ROUTE'
p401
I2
sS'PASS'
p402
I3
sS'DET'
p403
I47
sS'CROSS'
p404
I1
sS'PART'
p405
I26
sS'COND'
p406
I57
sS'REL'
p407
I14
sS'AUX'
p408
I39
sS'PATH'
p409
I180
sS'ADV'
p410
I15
sS'REF'
p411
I23
sS'FIND'
p412
I21
sS'DIR'
p413
I31
sS'ORIENT'
p414
I37
sS'IN'
p415
I1
sS'PUNCT'
p416
I3
sS'AWAY'
p417
I19
sS'POS'
p418
I8
sS'AGENT'
p419
I3
sS'ORDER'
p420
I16
sS'TURN'
p421
I52
sS'SEE'
p422
I4
sS'APPEAR'
p423
I128
sS'POSITION'
p424
I14
sS'ARRIVE'
p425
I86
sS'ONTO'
p426
I15
sS'ACROSS'
p427
I9
sS'OUT'
p428
I4
sS'COUNT'
p429
I31
sS'PAHT'
p430
I1
sS'OBJ'
p431
I270
sS'CC'
p432
I19
sS'STOP'
p433
I7
sS'IS'
p434
I14
sS'AGAINST'
p435
I6
sS'PAST'
p436
I28
sS'P'
I16
sS'S'
I620
sS'EX'
p437
I2
sS'BETWEEN'
p438
I8
sS'FOLLOW'
p439
I2
sS'HAS'
p440
I19
sS'UNTIL'
p441
I35
sS'BEFORE'
p442
I11
sS'ON'
p443
I20
sS'RELDIST'
p444
I21
sS'FROM'
p445
I2
sS'STRUCT'
p446
I310
sS'SEGMENT'
p447
I19
sS'TRAVEL'
p448
I44
sS'DETAIL'
p449
I88
sS'SIDE'
p450
I54
sS'META'
p451
I28
sS'EXIT'
p452
I2
sS'PURPOSE'
p453
I20
sS'STRUCTURAL'
p454
I24
sS'NOT'
p455
I5
sS'ALONG'
p456
I22
sS'TOWARD'
p457
I22
sS'TYPE'
p458
I2
sS'REGION'
p459
I17
sS'VIEW'
p460
I33
ssg35
Nsg36
NsbsS'here'
p461
(inltk.probability
FreqDist
p462
(dp463
g28
I78
sg29
(dp464
S'REF'
p465
I78
ssg35
Nsg36
NsbsS'rug'
p466
(inltk.probability
FreqDist
p467
(dp468
g28
I3
sg29
(dp469
S'PATH'
p470
I3
ssg35
Nsg36
NsbsS'accur'
p471
(inltk.probability
FreqDist
p472
(dp473
g28
I1
sg29
(dp474
S'TEXT'
p475
I1
ssg35
Nsg36
NsbsS'them'
p476
(inltk.probability
FreqDist
p477
(dp478
g28
I14
sg29
(dp479
S'REF'
p480
I14
ssg35
Nsg36
NsbsS'path'
p481
(inltk.probability
FreqDist
p482
(dp483
g28
I387
sg29
(dp484
S'PATH'
p485
I387
ssg35
Nsg36
NsbsS'along'
p486
(inltk.probability
FreqDist
p487
(dp488
g28
I133
sg29
(dp489
S'ON'
p490
I23
sS'ALONG'
p491
I107
sS'ONTO'
p492
I3
ssg35
Nsg36
NsbsS'sinc'
p493
(inltk.probability
FreqDist
p494
(dp495
g28
I1
sg29
(dp496
S'META'
p497
I1
ssg35
Nsg36
NsbsS'solid'
p498
(inltk.probability
FreqDist
p499
(dp500
g28
I2
sg29
(dp501
S'APPEAR'
p502
I2
ssg35
Nsg36
NsbsS'search'
p503
(inltk.probability
FreqDist
p504
(dp505
g28
I1
sg29
(dp506
S'FIND'
p507
I1
ssg35
Nsg36
NsbsS'conta'
p508
(inltk.probability
FreqDist
p509
(dp510
g28
I1
sg29
(dp511
S'HAS'
p512
I1
ssg35
Nsg36
NsbsS'ahead'
p513
(inltk.probability
FreqDist
p514
(dp515
g28
I42
sg29
(dp516
S'SIDE'
p517
I41
sS'DIR'
p518
I1
ssg35
Nsg36
NsbsS'fwd'
p519
(inltk.probability
FreqDist
p520
(dp521
g28
I1
sg29
(dp522
S'DIR'
p523
I1
ssg35
Nsg36
NsbsS'anymor'
p524
(inltk.probability
FreqDist
p525
(dp526
g28
I10
sg29
(dp527
S'NOT'
p528
I3
sS'ADV'
p529
I7
ssg35
Nsg36
NsbsS'prior'
p530
(inltk.probability
FreqDist
p531
(dp532
g28
I1
sg29
(dp533
g133
I1
ssg35
Nsg36
NsbsS'painter'
p534
(inltk.probability
FreqDist
p535
(dp536
g28
I11
sg29
(dp537
S'OBJ'
p538
I11
ssg35
Nsg36
NsbsS'octagon'
p539
(inltk.probability
FreqDist
p540
(dp541
g28
I42
sg29
(dp542
S'OBJ'
p543
I3
sS'APPEAR'
p544
I39
ssg35
Nsg36
NsbsS'hexagon'
p545
(inltk.probability
FreqDist
p546
(dp547
g28
I16
sg29
(dp548
S'APPEAR'
p549
I16
ssg35
Nsg36
NsbsS'regardless'
p550
(inltk.probability
FreqDist
p551
(dp552
g28
I1
sg29
(dp553
S'META'
p554
I1
ssg35
Nsg36
NsbsS'interect'
p555
(inltk.probability
FreqDist
p556
(dp557
g28
I7
sg29
(dp558
S'STRUCT'
p559
I7
ssg35
Nsg36
NsbsS'wil'
p560
(inltk.probability
FreqDist
p561
(dp562
g28
I2
sg29
(dp563
S'AUX'
p564
I2
ssg35
Nsg36
NsbsS'lamppost'
p565
(inltk.probability
FreqDist
p566
(dp567
g28
I5
sg29
(dp568
S'OBJ'
p569
I5
ssg35
Nsg36
NsbsS'visibl'
p570
(inltk.probability
FreqDist
p571
(dp572
g28
I4
sg29
(dp573
S'OBJ'
p574
I1
sS'APPEAR'
p575
I3
ssg35
Nsg36
NsbsS'unit'
p576
(inltk.probability
FreqDist
p577
(dp578
g28
I1
sg29
(dp579
S'STRUCT'
p580
I1
ssg35
Nsg36
NsbsS'red'
p581
(inltk.probability
FreqDist
p582
(dp583
g28
I355
sg29
(dp584
S'APPEAR'
p585
I355
ssg35
Nsg36
NsbsS'yourself'
p586
(inltk.probability
FreqDist
p587
(dp588
g28
I28
sg29
(dp589
S'AGENT'
p590
I28
ssg35
Nsg36
NsbsS'from'
p591
(inltk.probability
FreqDist
p592
(dp593
g28
I228
sg29
(dp594
S'LOC'
p595
I102
sS'FROM'
p596
I11
sS'STRUCT'
p597
I1
sg236
I105
sS'PART'
p598
I4
sS'META'
p599
I2
sS'COND'
p600
I3
ssg35
Nsg36
NsbsS'describ'
p601
(inltk.probability
FreqDist
p602
(dp603
g28
I1
sg29
(dp604
S'TEXT'
p605
I1
ssg35
Nsg36
NsbsS'would'
p606
(inltk.probability
FreqDist
p607
(dp608
g28
I1
sg29
(dp609
S'AUX'
p610
I1
ssg35
Nsg36
NsbsS'thre'
p611
(inltk.probability
FreqDist
p612
(dp613
g28
I1
sg29
(dp614
S'DET'
p615
I1
ssg35
Nsg36
NsbsS'two'
p616
(inltk.probability
FreqDist
p617
(dp618
g28
I252
sg29
(dp619
S'COUNT'
p620
I226
sS'P'
I26
ssg35
Nsg36
NsbsS'next'
p621
(inltk.probability
FreqDist
p622
(dp623
g28
I144
sg29
(dp624
g119
I9
sS'ORDER'
p625
I127
sS'THEN'
p626
I8
ssg35
Nsg36
NsbsS'few'
p627
(inltk.probability
FreqDist
p628
(dp629
g28
I3
sg29
(dp630
S'COUNT'
p631
I3
ssg35
Nsg36
NsbsS'call'
p632
(inltk.probability
FreqDist
p633
(dp634
g28
I1
sg29
(dp635
S'META'
p636
I1
ssg35
Nsg36
NsbsS'6'
(inltk.probability
FreqDist
p637
(dp638
g28
I155
sg29
(dp639
S'COUNT'
p640
I5
sS'P'
I150
ssg35
Nsg36
NsbsS'panel'
p641
(inltk.probability
FreqDist
p642
(dp643
g28
I71
sg29
(dp644
S'SEGMENT'
p645
I71
ssg35
Nsg36
NsbsS'type'
p646
(inltk.probability
FreqDist
p647
(dp648
g28
I2
sg29
(dp649
S'CC'
p650
I1
sS'OBJ'
p651
I1
ssg35
Nsg36
NsbsS'until'
p652
(inltk.probability
FreqDist
p653
(dp654
g28
I834
sg29
(dp655
S'UNTIL'
p656
I834
ssg35
Nsg36
NsbsS'more'
p657
(inltk.probability
FreqDist
p658
(dp659
g28
I26
sg29
(dp660
S'COUNT'
p661
I21
sS'RELDIST'
p662
I5
ssg35
Nsg36
NsbsS'sort'
p663
(inltk.probability
FreqDist
p664
(dp665
g28
I3
sg29
(dp666
S'OBJ'
p667
I3
ssg35
Nsg36
NsbsS'mispel'
p668
(inltk.probability
FreqDist
p669
(dp670
g28
I1
sg29
(dp671
S'META'
p672
I1
ssg35
Nsg36
NsbsS'stone'
p673
(inltk.probability
FreqDist
p674
(dp675
g28
I113
sg29
(dp676
S'OBJ'
p677
I1
sS'APPEAR'
p678
I112
ssg35
Nsg36
NsbsS'futon'
p679
(inltk.probability
FreqDist
p680
(dp681
g28
I1
sg29
(dp682
S'OBJ'
p683
I1
ssg35
Nsg36
NsbsS'must'
p684
(inltk.probability
FreqDist
p685
(dp686
g28
I5
sg29
(dp687
S'AUX'
p688
I5
ssg35
Nsg36
NsbsS'room'
p689
(inltk.probability
FreqDist
p690
(dp691
g28
I15
sg29
(dp692
S'REGION'
p693
I15
ssg35
Nsg36
NsbsS'f'
(inltk.probability
FreqDist
p694
(dp695
g28
I1
sg29
(dp696
g185
I1
ssg35
Nsg36
NsbsS'tunnel'
p697
(inltk.probability
FreqDist
p698
(dp699
g28
I12
sg29
(dp700
S'PATH'
p701
I3
sS'PATHDIR'
p702
I2
sS'STRUCT'
p703
I7
ssg35
Nsg36
NsbsS'florr'
p704
(inltk.probability
FreqDist
p705
(dp706
g28
I1
sg29
(dp707
S'OBJ'
p708
I1
ssg35
Nsg36
NsbsS'dthat'
p709
(inltk.probability
FreqDist
p710
(dp711
g28
I1
sg29
(dp712
S'CC'
p713
I1
ssg35
Nsg36
NsbsS'paragraph'
p714
(inltk.probability
FreqDist
p715
(dp716
g28
I1
sg29
(dp717
S'TEXT'
p718
I1
ssg35
Nsg36
NsbsS'can'
p719
(inltk.probability
FreqDist
p720
(dp721
g28
I109
sg29
(dp722
S'AUX'
p723
I105
sS'RELDIST'
p724
I1
sg497
I1
sS'DIST'
p725
I2
ssg35
Nsg36
NsbsS'meet'
p726
(inltk.probability
FreqDist
p727
(dp728
g28
I35
sg29
(dp729
S'ARRIVE'
p730
I14
sS'STRUCT'
p731
I21
ssg35
Nsg36
NsbsS'nearest'
p732
(inltk.probability
FreqDist
p733
(dp734
g28
I4
sg29
(dp735
S'ORDER'
p736
I4
ssg35
Nsg36
NsbsS'explor'
p737
(inltk.probability
FreqDist
p738
(dp739
g28
I1
sg29
(dp740
S'TRAVEL'
p741
I1
ssg35
Nsg36
NsbsS'household'
p742
(inltk.probability
FreqDist
p743
(dp744
g28
I3
sg29
(dp745
S'APPEAR'
p746
I3
ssg35
Nsg36
NsbsS'honey'
p747
(inltk.probability
FreqDist
p748
(dp749
g28
I1
sg29
(dp750
S'OBJ'
p751
I1
ssg35
Nsg36
NsbsS'candlestand'
p752
(inltk.probability
FreqDist
p753
(dp754
g28
I1
sg29
(dp755
S'OBJ'
p756
I1
ssg35
Nsg36
NsbsS'grassi'
p757
(inltk.probability
FreqDist
p758
(dp759
g28
I43
sg29
(dp760
S'APPEAR'
p761
I43
ssg35
Nsg36
NsbsS'want'
p762
(inltk.probability
FreqDist
p763
(dp764
g28
I5
sg29
(dp765
S'AUX'
p766
I4
sS'META'
p767
I1
ssg35
Nsg36
NsbsS'hit'
p768
(inltk.probability
FreqDist
p769
(dp770
g28
I213
sg29
(dp771
S'ARRIVE'
p772
I209
sS'STRUCT'
p773
I4
ssg35
Nsg36
NsbsS'pink'
p774
(inltk.probability
FreqDist
p775
(dp776
g28
I228
sg29
(dp777
S'APPEAR'
p778
I228
ssg35
Nsg36
NsbsS'cours'
p779
(inltk.probability
FreqDist
p780
(dp781
g28
I1
sg29
(dp782
S'ROUTE'
p783
I1
ssg35
Nsg36
NsbsS'end'
p784
(inltk.probability
FreqDist
p785
(dp786
g28
I557
sg29
(dp787
S'ARRIVE'
p788
I5
sS'STRUCTURAL'
p789
I1
sS'UNTIL'
p790
I3
sS'STRUCT'
p791
I548
ssg35
Nsg36
NsbsS"'t'"
p792
(inltk.probability
FreqDist
p793
(dp794
g28
I1
sg29
(dp795
S'STRUCT'
p796
I1
ssg35
Nsg36
NsbsS'anoth'
p797
(inltk.probability
FreqDist
p798
(dp799
g28
I91
sg29
(dp800
S'DET'
p801
I91
ssg35
Nsg36
NsbsS'travel'
p802
(inltk.probability
FreqDist
p803
(dp804
g28
I2
sg29
(dp805
S'TRAVEL'
p806
I2
ssg35
Nsg36
NsbsS'six'
p807
(inltk.probability
FreqDist
p808
(dp809
g28
I21
sg29
(dp810
S'COUNT'
p811
I9
sS'P'
I12
ssg35
Nsg36
NsbsS'1'
(inltk.probability
FreqDist
p812
(dp813
g28
I159
sg29
(dp814
S'COUNT'
p815
I16
sS'P'
I143
ssg35
Nsg36
NsbsS'till'
p816
(inltk.probability
FreqDist
p817
(dp818
g28
I48
sg29
(dp819
S'UNTIL'
p820
I48
ssg35
Nsg36
NsbsS'lamp'
p821
(inltk.probability
FreqDist
p822
(dp823
g28
I246
sg29
(dp824
S'OBJ'
p825
I246
ssg35
Nsg36
NsbsS'fourth'
p826
(inltk.probability
FreqDist
p827
(dp828
g28
I2
sg29
(dp829
S'ORDER'
p830
I2
ssg35
Nsg36
NsbsS'tile'
p831
(inltk.probability
FreqDist
p832
(dp833
g28
I278
sg29
(dp834
S'PATH'
p835
I45
sS'OBJ'
p836
I45
sS'APPEAR'
p837
I188
ssg35
Nsg36
NsbsS'instead'
p838
(inltk.probability
FreqDist
p839
(dp840
g28
I1
sg29
(dp841
S'ON'
p842
I1
ssg35
Nsg36
NsbsS'perspect'
p843
(inltk.probability
FreqDist
p844
(dp845
g28
I1
sg29
(dp846
S'VIEW'
p847
I1
ssg35
Nsg36
NsbsS'everywher'
p848
(inltk.probability
FreqDist
p849
(dp850
g28
I1
sg29
(dp851
S'LOC'
p852
I1
ssg35
Nsg36
NsbsS'tiem'
p853
(inltk.probability
FreqDist
p854
(dp855
g28
I1
sg29
(dp856
S'DIST'
p857
I1
ssg35
Nsg36
NsbsS'after'
p858
(inltk.probability
FreqDist
p859
(dp860
g28
I47
sg29
(dp861
S'PAST'
p862
I42
sS'COND'
p863
I5
ssg35
Nsg36
NsbsS'spot'
p864
(inltk.probability
FreqDist
p865
(dp866
g28
I37
sg29
(dp867
S'LOC'
p868
I22
sS'DIST'
p869
I7
sS'STRUCT'
p870
I8
ssg35
Nsg36
NsbsS'befor'
p871
(inltk.probability
FreqDist
p872
(dp873
g28
I54
sg29
(dp874
S'BEFORE'
p875
I54
ssg35
Nsg36
NsbsS'4th'
p876
(inltk.probability
FreqDist
p877
(dp878
g28
I2
sg29
(dp879
S'ORDER'
p880
I2
ssg35
Nsg36
NsbsS'floor'
p881
(inltk.probability
FreqDist
p882
(dp883
g28
I801
sg29
(dp884
S'PATH'
p885
I451
sS'META'
p886
I1
sS'OBJ'
p887
I235
sS'APPEAR'
p888
I114
ssg35
Nsg36
NsbsS'tward'
p889
(inltk.probability
FreqDist
p890
(dp891
g28
I2
sg29
(dp892
S'TOWARD'
p893
I2
ssg35
Nsg36
NsbsS'floral'
p894
(inltk.probability
FreqDist
p895
(dp896
g28
I22
sg29
(dp897
S'APPEAR'
p898
I22
ssg35
Nsg36
NsbsS'such'
p899
(inltk.probability
FreqDist
p900
(dp901
g28
I1
sg29
(dp902
S'PURPOSE'
p903
I1
ssg35
Nsg36
NsbsS'parallel'
p904
(inltk.probability
FreqDist
p905
(dp906
g28
I2
sg29
(dp907
S'STRUCTURAL'
p908
I2
ssg35
Nsg36
NsbsS'a'
(inltk.probability
FreqDist
p909
(dp910
g28
I1636
sg29
(dp911
S'LOC'
p912
I1
sS'RELDIST'
p913
I4
sS'DIST'
p914
I2
sS'STRUCT'
p915
I1
sS'OBJ'
p916
I2
sS'DET'
p917
I1622
sg253
I2
sS'AUX'
p918
I1
sS'ARRIVE'
p919
I1
ssg35
Nsg36
NsbsS'positon'
p920
(inltk.probability
FreqDist
p921
(dp922
g28
I3
sg29
(dp923
S'POS'
p924
I3
ssg35
Nsg36
NsbsS'short'
p925
(inltk.probability
FreqDist
p926
(dp927
g28
I18
sg29
(dp928
S'STRUCTURAL'
p929
I18
ssg35
Nsg36
NsbsS'third'
p930
(inltk.probability
FreqDist
p931
(dp932
g28
I5
sg29
(dp933
S'ORDER'
p934
I5
ssg35
Nsg36
NsbsS'light'
p935
(inltk.probability
FreqDist
p936
(dp937
g28
I1
sg29
(dp938
S'APPEAR'
p939
I1
ssg35
Nsg36
NsbsS'sit'
p940
(inltk.probability
FreqDist
p941
(dp942
g28
I34
sg29
(dp943
S'LOC'
p944
I32
sS'APPEAR'
p945
I2
ssg35
Nsg36
NsbsS'aesal'
p946
(inltk.probability
FreqDist
p947
(dp948
g28
I22
sg29
(dp949
S'OBJ'
p950
I22
ssg35
Nsg36
NsbsS'so'
p951
(inltk.probability
FreqDist
p952
(dp953
g28
I99
sg29
(dp954
S'THEN'
p955
I2
sS'META'
p956
I4
sS'COND'
p957
I8
sS'PURPOSE'
p958
I85
ssg35
Nsg36
NsbsS'road'
p959
(inltk.probability
FreqDist
p960
(dp961
g28
I91
sg29
(dp962
S'PATH'
p963
I91
ssg35
Nsg36
NsbsS'allow'
p964
(inltk.probability
FreqDist
p965
(dp966
g28
I1
sg29
(dp967
S'STRUCT'
p968
I1
ssg35
Nsg36
NsbsS'enter'
p969
(inltk.probability
FreqDist
p970
(dp971
g28
I6
sg29
(dp972
S'ARRIVE'
p973
I5
sS'SEGMENT'
p974
I1
ssg35
Nsg36
NsbsS'order'
p975
(inltk.probability
FreqDist
p976
(dp977
g28
I1
sg29
(dp978
S'PURPOSE'
p979
I1
ssg35
Nsg36
NsbsS'wind'
p980
(inltk.probability
FreqDist
p981
(dp982
g28
I16
sg29
(dp983
S'FOLLOW'
p984
I6
sS'STRUCTURAL'
p985
I10
ssg35
Nsg36
NsbsS'over'
p986
(inltk.probability
FreqDist
p987
(dp988
g28
I15
sg29
(dp989
S'LOC'
p990
I5
sS'DIST'
p991
I3
sS'STRUCT'
p992
I1
sS'PASS'
p993
I1
sg124
I1
sS'DIR'
p994
I4
ssg35
Nsg36
NsbsS'move'
p995
(inltk.probability
FreqDist
p996
(dp997
g28
I737
sg29
(dp998
S'TURN'
p999
I1
sS'TRAVEL'
p1000
I730
sg767
I2
sS'DIST'
p1001
I4
ssg35
Nsg36
NsbsS'orang'
p1002
(inltk.probability
FreqDist
p1003
(dp1004
g28
I70
sg29
(dp1005
S'APPEAR'
p1006
I70
ssg35
Nsg36
NsbsS'soon'
p1007
(inltk.probability
FreqDist
p1008
(dp1009
g28
I1
sg29
(dp1010
g724
I1
ssg35
Nsg36
NsbsS'ahll'
p1011
(inltk.probability
FreqDist
p1012
(dp1013
g28
I1
sg29
(dp1014
S'PATH'
p1015
I1
ssg35
Nsg36
NsbsS'isnt'
p1016
(inltk.probability
FreqDist
p1017
(dp1018
g28
I1
sg29
(dp1019
S'HAS'
p1020
I1
ssg35
Nsg36
NsbsS'through'
p1021
(inltk.probability
FreqDist
p1022
(dp1023
g28
I6
sg29
(dp1024
S'PAST'
p1025
I5
sS'ALONG'
p1026
I1
ssg35
Nsg36
NsbsS'still'
p1027
(inltk.probability
FreqDist
p1028
(dp1029
g28
I2
sg29
(dp1030
S'IS'
p1031
I1
sS'META'
p1032
I1
ssg35
Nsg36
NsbsS'segement'
p1033
(inltk.probability
FreqDist
p1034
(dp1035
g28
I2
sg29
(dp1036
S'DIST'
p1037
I2
ssg35
Nsg36
NsbsS'inersect'
p1038
(inltk.probability
FreqDist
p1039
(dp1040
g28
I1
sg29
(dp1041
S'STRUCT'
p1042
I1
ssg35
Nsg36
NsbsS'll'
p1043
(inltk.probability
FreqDist
p1044
(dp1045
g28
I3
sg29
(dp1046
S'AUX'
p1047
I3
ssg35
Nsg36
NsbsS','
(inltk.probability
FreqDist
p1048
(dp1049
g28
I893
sg29
(dp1050
S','
I893
ssg35
Nsg36
NsbsS'instantli'
p1051
(inltk.probability
FreqDist
p1052
(dp1053
g28
I1
sg29
(dp1054
S'AUX'
p1055
I1
ssg35
Nsg36
NsbsS'main'
p1056
(inltk.probability
FreqDist
p1057
(dp1058
g28
I6
sg29
(dp1059
S'ON'
p1060
I1
sS'APPEAR'
p1061
I1
sS'STRUCTURAL'
p1062
I4
ssg35
Nsg36
NsbsS'then'
p1063
(inltk.probability
FreqDist
p1064
(dp1065
g28
I375
sg29
(dp1066
S'ADV'
p1067
I4
sS'THEN'
p1068
I369
sS'CC'
p1069
I2
ssg35
Nsg36
NsbsS'non'
p1070
(inltk.probability
FreqDist
p1071
(dp1072
g28
I2
sg29
(dp1073
S'NOT'
p1074
I1
sS'APPEAR'
p1075
I1
ssg35
Nsg36
NsbsS'junction'
p1076
(inltk.probability
FreqDist
p1077
(dp1078
g28
I6
sg29
(dp1079
S'STRUCT'
p1080
I6
ssg35
Nsg36
NsbsS'noe'
p1081
(inltk.probability
FreqDist
p1082
(dp1083
g28
I1
sg29
(dp1084
S'THEN'
p1085
I1
ssg35
Nsg36
NsbsS'rectangl'
p1086
(inltk.probability
FreqDist
p1087
(dp1088
g28
I36
sg29
(dp1089
S'PATH'
p1090
I31
sS'OBJ'
p1091
I3
sS'APPEAR'
p1092
I2
ssg35
Nsg36
NsbsS'they'
p1093
(inltk.probability
FreqDist
p1094
(dp1095
g28
I6
sg29
(dp1096
S'REF'
p1097
I6
ssg35
Nsg36
NsbsS'not'
p1098
(inltk.probability
FreqDist
p1099
(dp1100
g28
I35
sg29
(dp1101
S'NOT'
p1102
I33
sg599
I2
ssg35
Nsg36
NsbsS'now'
p1103
(inltk.probability
FreqDist
p1104
(dp1105
g28
I101
sg29
(dp1106
S'ADV'
p1107
I13
sS'THEN'
p1108
I88
ssg35
Nsg36
NsbsS'hall'
p1109
(inltk.probability
FreqDist
p1110
(dp1111
g28
I1073
sg29
(dp1112
S'PATH'
p1113
I1072
sS'PAHT'
p1114
I1
ssg35
Nsg36
NsbsS'nor'
p1115
(inltk.probability
FreqDist
p1116
(dp1117
g28
I5
sg29
(dp1118
S'NOT'
p1119
I5
ssg35
Nsg36
NsbsS'choic'
p1120
(inltk.probability
FreqDist
p1121
(dp1122
g28
I2
sg29
(dp1123
S'TURN'
p1124
I1
sS'META'
p1125
I1
ssg35
Nsg36
NsbsS'easel'
p1126
(inltk.probability
FreqDist
p1127
(dp1128
g28
I258
sg29
(dp1129
S'OBJ'
p1130
I258
ssg35
Nsg36
NsbsS'oliv'
p1131
(inltk.probability
FreqDist
p1132
(dp1133
g28
I1
sg29
(dp1134
S'APPEAR'
p1135
I1
ssg35
Nsg36
NsbsS'l'
(inltk.probability
FreqDist
p1136
(dp1137
g28
I52
sg29
(dp1138
S'STRUCT'
p1139
I52
ssg35
Nsg36
NsbsS'rock'
p1140
(inltk.probability
FreqDist
p1141
(dp1142
g28
I46
sg29
(dp1143
S'PATH'
p1144
I17
sS'OBJ'
p1145
I9
sS'APPEAR'
p1146
I20
ssg35
Nsg36
NsbsS'fulli'
p1147
(inltk.probability
FreqDist
p1148
(dp1149
g28
I2
sg29
(dp1150
S'LOC'
p1151
I1
sS'DET'
p1152
I1
ssg35
Nsg36
NsbsS'pcitur'
p1153
(inltk.probability
FreqDist
p1154
(dp1155
g28
I1
sg29
(dp1156
S'OBJ'
p1157
I1
ssg35
Nsg36
NsbsS'side'
p1158
(inltk.probability
FreqDist
p1159
(dp1160
g28
I148
sg29
(dp1161
S'SIDE'
p1162
I92
sS'PATHDIR'
p1163
I20
sS'STRUCTURAL'
p1164
I36
ssg35
Nsg36
NsbsS'hanger'
p1165
(inltk.probability
FreqDist
p1166
(dp1167
g28
I60
sg29
(dp1168
S'OBJ'
p1169
I60
ssg35
Nsg36
NsbsS'p'
(inltk.probability
FreqDist
p1170
(dp1171
g28
I14
sg29
(dp1172
S'POS'
p1173
I14
ssg35
Nsg36
NsbsS'hallway'
p1174
(inltk.probability
FreqDist
p1175
(dp1176
g28
I546
sg29
(dp1177
S'PATH'
p1178
I544
sS'PATHDIR'
p1179
I1
sS'PAHT'
p1180
I1
ssg35
Nsg36
NsbsS'resum'
p1181
(inltk.probability
FreqDist
p1182
(dp1183
g28
I1
sg29
(dp1184
S'TRAVEL'
p1185
I1
ssg35
Nsg36
NsbsS'fish'
p1186
(inltk.probability
FreqDist
p1187
(dp1188
g28
I122
sg29
(dp1189
S'OBJ'
p1190
I122
ssg35
Nsg36
NsbsS'hard'
p1191
(inltk.probability
FreqDist
p1192
(dp1193
g28
I1
sg29
(dp1194
S'ORIENT'
p1195
I1
ssg35
Nsg36
NsbsS'continu'
p1196
(inltk.probability
FreqDist
p1197
(dp1198
g28
I129
sg29
(dp1199
S'AUX'
p1200
I4
sS'TRAVEL'
p1201
I125
ssg35
Nsg36
NsbsS'realli'
p1202
(inltk.probability
FreqDist
p1203
(dp1204
g28
I1
sg29
(dp1205
S'LOC'
p1206
I1
ssg35
Nsg36
NsbsS'lft'
p1207
(inltk.probability
FreqDist
p1208
(dp1209
g28
I1
sg29
(dp1210
S'DIR'
p1211
I1
ssg35
Nsg36
NsbsS'longetr'
p1212
(inltk.probability
FreqDist
p1213
(dp1214
g28
I1
sg29
(dp1215
S'STRUCTURAL'
p1216
I1
ssg35
Nsg36
NsbsS'thing'
p1217
(inltk.probability
FreqDist
p1218
(dp1219
g28
I7
sg29
(dp1220
g672
I1
sg538
I6
ssg35
Nsg36
NsbsS'orient'
p1221
(inltk.probability
FreqDist
p1222
(dp1223
g28
I22
sg29
(dp1224
g220
I1
sS'ORIENT'
p1225
I21
ssg35
Nsg36
NsbsS'brow'
p1226
(inltk.probability
FreqDist
p1227
(dp1228
g28
I1
sg29
(dp1229
S'APPEAR'
p1230
I1
ssg35
Nsg36
NsbsS'out'
p1231
(inltk.probability
FreqDist
p1232
(dp1233
g28
I79
sg29
(dp1234
g31
I1
sS'THEN'
p1235
I40
sS'COND'
p1236
I1
sS'DIR'
p1237
I26
sS'OUT'
p1238
I11
ssg35
Nsg36
NsbsS'rt'
p1239
(inltk.probability
FreqDist
p1240
(dp1241
g28
I12
sg29
(dp1242
S'DIR'
p1243
I12
ssg35
Nsg36
NsbsS'flower'
p1244
(inltk.probability
FreqDist
p1245
(dp1246
g28
I207
sg29
(dp1247
S'PATH'
p1248
I1
sS'OBJ'
p1249
I45
sS'APPEAR'
p1250
I161
ssg35
Nsg36
NsbsS'goi'
p1251
(inltk.probability
FreqDist
p1252
(dp1253
g28
I1
sg29
(dp1254
S'TRAVEL'
p1255
I1
ssg35
Nsg36
NsbsS"'"
(inltk.probability
FreqDist
p1256
(dp1257
g28
I164
sg29
(dp1258
S'STRUCT'
p1259
I106
sS'IS'
p1260
I42
sS'META'
p1261
I1
sS'NOT'
p1262
I6
sS'AUX'
p1263
I7
sS'REF'
p1264
I1
sS'POSS'
p1265
I1
ssg35
Nsg36
NsbsS'space'
p1266
(inltk.probability
FreqDist
p1267
(dp1268
g28
I51
sg29
(dp1269
S'LOC'
p1270
I16
sS'DIST'
p1271
I25
sS'STRUCT'
p1272
I10
ssg35
Nsg36
NsbsS'goe'
p1273
(inltk.probability
FreqDist
p1274
(dp1275
g28
I13
sg29
(dp1276
S'TURN'
p1277
I13
ssg35
Nsg36
NsbsS'miss'
p1278
(inltk.probability
FreqDist
p1279
(dp1280
g28
I1
sg29
(dp1281
S'STRUCTURAL'
p1282
I1
ssg35
Nsg36
NsbsS're'
p1283
(inltk.probability
FreqDist
p1284
(dp1285
g28
I29
sg29
(dp1286
g1263
I3
sS'IS'
p1287
I26
ssg35
Nsg36
NsbsS'stool'
p1288
(inltk.probability
FreqDist
p1289
(dp1290
g28
I101
sg29
(dp1291
S'OBJ'
p1292
I101
ssg35
Nsg36
NsbsS'7'
(inltk.probability
FreqDist
p1293
(dp1294
g28
I149
sg29
(dp1295
S'COUNT'
p1296
I2
sS'P'
I147
ssg35
Nsg36
NsbsS'tunr'
p1297
(inltk.probability
FreqDist
p1298
(dp1299
g28
I1
sg29
(dp1300
S'TURN'
p1301
I1
ssg35
Nsg36
NsbsS'print'
p1302
(inltk.probability
FreqDist
p1303
(dp1304
g28
I2
sg29
(dp1305
S'APPEAR'
p1306
I2
ssg35
Nsg36
NsbsS'correct'
p1307
(inltk.probability
FreqDist
p1308
(dp1309
g28
I8
sg29
(dp1310
S'TEXT'
p1311
I2
sS'APPEAR'
p1312
I4
sS'STRUCTURAL'
p1313
I2
ssg35
Nsg36
NsbsS'deadend'
p1314
(inltk.probability
FreqDist
p1315
(dp1316
g28
I7
sg29
(dp1317
S'STRUCT'
p1318
I7
ssg35
Nsg36
NsbsS'unil'
p1319
(inltk.probability
FreqDist
p1320
(dp1321
g28
I1
sg29
(dp1322
S'UNTIL'
p1323
I1
ssg35
Nsg36
NsbsS'insid'
p1324
(inltk.probability
FreqDist
p1325
(dp1326
g28
I1
sg29
(dp1327
S'LOC'
p1328
I1
ssg35
Nsg36
NsbsS'dirt'
p1329
(inltk.probability
FreqDist
p1330
(dp1331
g28
I4
sg29
(dp1332
S'APPEAR'
p1333
I4
ssg35
Nsg36
NsbsS'hang'
p1334
(inltk.probability
FreqDist
p1335
(dp1336
g28
I3
sg29
(dp1337
S'TURN'
p1338
I1
sg163
I2
ssg35
Nsg36
NsbsS'fave'
p1339
(inltk.probability
FreqDist
p1340
(dp1341
g28
I1
sg29
(dp1342
S'ORIENT'
p1343
I1
ssg35
Nsg36
NsbsS'five'
p1344
(inltk.probability
FreqDist
p1345
(dp1346
g28
I30
sg29
(dp1347
S'COUNT'
p1348
I18
sS'P'
I12
ssg35
Nsg36
NsbsS'small'
p1349
(inltk.probability
FreqDist
p1350
(dp1351
g28
I2
sg29
(dp1352
S'APPEAR'
p1353
I2
ssg35
Nsg36
NsbsS'believ'
p1354
(inltk.probability
FreqDist
p1355
(dp1356
g28
I7
sg29
(dp1357
S'META'
p1358
I7
ssg35
Nsg36
NsbsS'W'
(inltk.probability
FreqDist
p1359
(dp1360
g28
I3003
sg29
(dp1361
S''
I1
sg395
I138
sg396
I5
sg397
I87
sg398
I59
sg399
I26
sg400
I7
sg401
I2
sg402
I3
sg403
I47
sg404
I1
sg405
I26
sg406
I57
sg407
I14
sg408
I39
sg409
I180
sg410
I15
sg411
I23
sg412
I21
sg413
I31
sg414
I37
sg415
I1
sg416
I3
sg417
I19
sg418
I8
sg419
I3
sg420
I16
sg421
I52
sg422
I4
sg423
I128
sg424
I14
sg425
I86
sg426
I15
sg427
I9
sg428
I4
sg429
I31
sg430
I1
sg431
I270
sg432
I19
sg433
I7
sg434
I14
sg435
I6
sg436
I28
sS'P'
I16
sS'S'
I620
sg437
I2
sg438
I8
sg439
I2
sg440
I19
sg441
I35
sg442
I11
sg443
I20
sg444
I21
sg445
I2
sg446
I310
sg447
I19
sg448
I44
sg449
I88
sg450
I54
sg451
I28
sg452
I2
sg453
I20
sg454
I24
sg455
I5
sg456
I22
sg457
I22
sg458
I2
sg459
I17
sg460
I33
ssg35
Nsg36
NsbsS'put'
p1362
(inltk.probability
FreqDist
p1363
(dp1364
g28
I4
sg29
(dp1365
g672
I1
sS'ORIENT'
p1366
I3
ssg35
Nsg36
NsbsS'shortest'
p1367
(inltk.probability
FreqDist
p1368
(dp1369
g28
I2
sg29
(dp1370
S'STRUCTURAL'
p1371
I2
ssg35
Nsg36
NsbsS'turtl'
p1372
(inltk.probability
FreqDist
p1373
(dp1374
g28
I13
sg29
(dp1375
S'OBJ'
p1376
I13
ssg35
Nsg36
NsbsS'buterfli'
p1377
(inltk.probability
FreqDist
p1378
(dp1379
g28
I1
sg29
(dp1380
S'OBJ'
p1381
I1
ssg35
Nsg36
NsbsS'angl'
p1382
(inltk.probability
FreqDist
p1383
(dp1384
g28
I4
sg29
(dp1385
S'OBJ'
p1386
I3
sS'STRUCT'
p1387
I1
ssg35
Nsg36
NsbsS'pictur'
p1388
(inltk.probability
FreqDist
p1389
(dp1390
g28
I100
sg29
(dp1391
S'OBJ'
p1392
I100
ssg35
Nsg36
NsbsS'keep'
p1393
(inltk.probability
FreqDist
p1394
(dp1395
g28
I36
sg29
(dp1396
S'AUX'
p1397
I34
sS'TRAVEL'
p1398
I2
ssg35
Nsg36
NsbsS'turn'
p1399
(inltk.probability
FreqDist
p1400
(dp1401
g28
I1524
sg29
(dp1402
S'TURN'
p1403
I1522
sS'META'
p1404
I1
sg123
I1
ssg35
Nsg36
NsbsS'length'
p1405
(inltk.probability
FreqDist
p1406
(dp1407
g28
I4
sg29
(dp1408
S'PATHDIR'
p1409
I4
ssg35
Nsg36
NsbsS'place'
p1410
(inltk.probability
FreqDist
p1411
(dp1412
g28
I68
sg29
(dp1413
S'LOC'
p1414
I25
sS'STRUCT'
p1415
I2
sS'ORIENT'
p1416
I41
ssg35
Nsg36
NsbsS'w'
(inltk.probability
FreqDist
p1417
(dp1418
g28
I5
sg29
(dp1419
S'COND'
p1420
I1
sS'DETAIL'
p1421
I4
ssg35
Nsg36
NsbsS'onto'
p1422
(inltk.probability
FreqDist
p1423
(dp1424
g28
I227
sg29
(dp1425
S'ALONG'
p1426
I6
sS'ONTO'
p1427
I221
ssg35
Nsg36
NsbsS'think'
p1428
(inltk.probability
FreqDist
p1429
(dp1430
g28
I4
sg29
(dp1431
S'META'
p1432
I4
ssg35
Nsg36
NsbsS'first'
p1433
(inltk.probability
FreqDist
p1434
(dp1435
g28
I178
sg29
(dp1436
g497
I1
sS'ORDER'
p1437
I177
ssg35
Nsg36
NsbsS'origin'
p1438
(inltk.probability
FreqDist
p1439
(dp1440
g28
I1
sg29
(dp1441
S'ADV'
p1442
I1
ssg35
Nsg36
NsbsS'wlak'
p1443
(inltk.probability
FreqDist
p1444
(dp1445
g28
I2
sg29
(dp1446
S'TRAVEL'
p1447
I2
ssg35
Nsg36
NsbsS'major'
p1448
(inltk.probability
FreqDist
p1449
(dp1450
g28
I1
sg29
(dp1451
S'COUNT'
p1452
I1
ssg35
Nsg36
NsbsS'floord'
p1453
(inltk.probability
FreqDist
p1454
(dp1455
g28
I1
sg29
(dp1456
S'APPEAR'
p1457
I1
ssg35
Nsg36
NsbsS'onl'
p1458
(inltk.probability
FreqDist
p1459
(dp1460
g28
I1
sg29
(dp1461
S'DET'
p1462
I1
ssg35
Nsg36
NsbsS'onc'
p1463
(inltk.probability
FreqDist
p1464
(dp1465
g28
I401
sg29
(dp1466
S'COUNT'
p1467
I342
sS'COND'
p1468
I59
ssg35
Nsg36
NsbsS'number'
p1469
(inltk.probability
FreqDist
p1470
(dp1471
g28
I1
sg29
(dp1472
S'P'
I1
ssg35
Nsg36
NsbsS'one'
p1473
(inltk.probability
FreqDist
p1474
(dp1475
g28
I587
sg29
(dp1476
S'COUNT'
p1477
I522
sS'P'
I33
sg220
I5
sS'DET'
p1478
I12
sS'REF'
p1479
I15
ssg35
Nsg36
NsbsS'blank'
p1480
(inltk.probability
FreqDist
p1481
(dp1482
g28
I48
sg29
(dp1483
S'APPEAR'
p1484
I48
ssg35
Nsg36
NsbsS'open'
p1485
(inltk.probability
FreqDist
p1486
(dp1487
g28
I14
sg29
(dp1488
S'STRUCT'
p1489
I8
sS'STRUCTURAL'
p1490
I6
ssg35
Nsg36
NsbsS'differ'
p1491
(inltk.probability
FreqDist
p1492
(dp1493
g28
I3
sg29
(dp1494
S'APPEAR'
p1495
I3
ssg35
Nsg36
NsbsS'stop_v'
p1496
(inltk.probability
FreqDist
p1497
(dp1498
g28
I1
sg29
(dp1499
S'S'
I1
ssg35
Nsg36
NsbsS'their'
p1500
(inltk.probability
FreqDist
p1501
(dp1502
g28
I2
sg29
(dp1503
S'REF'
p1504
I1
sS'EX'
p1505
I1
ssg35
Nsg36
NsbsS'top'
p1506
(inltk.probability
FreqDist
p1507
(dp1508
g28
I15
sg29
(dp1509
S'LOC'
p1510
I12
sS'STRUCT'
p1511
I3
ssg35
Nsg36
NsbsS'tot'
p1512
(inltk.probability
FreqDist
p1513
(dp1514
g28
I2
sg29
(dp1515
S'ARRIVE'
p1516
I1
sS'UNTIL'
p1517
I1
ssg35
Nsg36
NsbsS'paint'
p1518
(inltk.probability
FreqDist
p1519
(dp1520
g28
I54
sg29
(dp1521
g672
I1
sS'OBJ'
p1522
I53
ssg35
Nsg36
NsbsS'180'
p1523
(inltk.probability
FreqDist
p1524
(dp1525
g28
I5
sg29
(dp1526
S'COUNT'
p1527
I5
ssg35
Nsg36
NsbsS'2'
(inltk.probability
FreqDist
p1528
(dp1529
g28
I201
sg29
(dp1530
S'COUNT'
p1531
I63
sS'P'
I137
sg253
I1
ssg35
Nsg36
NsbsS'too'
p1532
(inltk.probability
FreqDist
p1533
(dp1534
g28
I3
sg29
(dp1535
S'ADV'
p1536
I1
sS'META'
p1537
I2
ssg35
Nsg36
NsbsS'deep'
p1538
(inltk.probability
FreqDist
p1539
(dp1540
g28
I1
sg29
(dp1541
S'APPEAR'
p1542
I1
ssg35
Nsg36
NsbsS'final'
p1543
(inltk.probability
FreqDist
p1544
(dp1545
g28
I5
sg29
(dp1546
S'ADV'
p1547
I5
ssg35
Nsg36
NsbsS'floweri'
p1548
(inltk.probability
FreqDist
p1549
(dp1550
g28
I11
sg29
(dp1551
S'APPEAR'
p1552
I11
ssg35
Nsg36
NsbsS'shell'
p1553
(inltk.probability
FreqDist
p1554
(dp1555
g28
I14
sg29
(dp1556
g1376
I13
sS'APPEAR'
p1557
I1
ssg35
Nsg36
NsbsS'option'
p1558
(inltk.probability
FreqDist
p1559
(dp1560
g28
I1
sg29
(dp1561
S'TURN'
p1562
I1
ssg35
Nsg36
NsbsS'that'
p1563
(inltk.probability
FreqDist
p1564
(dp1565
g28
I353
sg29
(dp1566
S'REF'
p1567
I80
sg33
I7
sS'DET'
p1568
I85
sS'DETAIL'
p1569
I126
sg903
I55
ssg35
Nsg36
NsbsS'flowerd'
p1570
(inltk.probability
FreqDist
p1571
(dp1572
g28
I1
sg29
(dp1573
S'APPEAR'
p1574
I1
ssg35
Nsg36
NsbsS'forward'
p1575
(inltk.probability
FreqDist
p1576
(dp1577
g28
I1142
sg29
(dp1578
S'DIR'
p1579
I1142
ssg35
Nsg36
NsbsS'pnk'
p1580
(inltk.probability
FreqDist
p1581
(dp1582
g28
I3
sg29
(dp1583
S'APPEAR'
p1584
I3
ssg35
Nsg36
NsbsS'part'
p1585
(inltk.probability
FreqDist
p1586
(dp1587
g28
I22
sg29
(dp1588
S'PATHDIR'
p1589
I21
sS'STRUCT'
p1590
I1
ssg35
Nsg36
NsbsS'exactli'
p1591
(inltk.probability
FreqDist
p1592
(dp1593
g28
I2
sg29
(dp1594
S'ADV'
p1595
I2
ssg35
Nsg36
NsbsS'than'
p1596
(inltk.probability
FreqDist
p1597
(dp1598
g28
I16
sg29
(dp1599
S'COUNT'
p1600
I1
sS'THEN'
p1601
I12
sS'THAN'
p1602
I2
sS'DETAIL'
p1603
I1
ssg35
Nsg36
NsbsS'ben'
p1604
(inltk.probability
FreqDist
p1605
(dp1606
g28
I1
sg29
(dp1607
S'DIR'
p1608
I1
ssg35
Nsg36
NsbsS'grey'
p1609
(inltk.probability
FreqDist
p1610
(dp1611
g28
I122
sg29
(dp1612
S'APPEAR'
p1613
I122
ssg35
Nsg36
NsbsS'rack'
p1614
(inltk.probability
FreqDist
p1615
(dp1616
g28
I113
sg29
(dp1617
S'OBJ'
p1618
I113
ssg35
Nsg36
NsbsS"you'r"
p1619
(inltk.probability
FreqDist
p1620
(dp1621
g28
I1
sg29
(dp1622
g74
I1
ssg35
Nsg36
NsbsS'interesect'
p1623
(inltk.probability
FreqDist
p1624
(dp1625
g28
I11
sg29
(dp1626
S'STRUCT'
p1627
I11
ssg35
Nsg36
NsbsS'pieac'
p1628
(inltk.probability
FreqDist
p1629
(dp1630
g28
I1
sg29
(dp1631
S'OBJ'
p1632
I1
ssg35
Nsg36
NsbsS'were'
p1633
(inltk.probability
FreqDist
p1634
(dp1635
g28
I3
sg29
(dp1636
S'AUX'
p1637
I3
ssg35
Nsg36
NsbsS'posit'
p1638
(inltk.probability
FreqDist
p1639
(dp1640
g28
I3
sg29
(dp1641
S'LOC'
p1642
I2
sS'POS'
p1643
I1
ssg35
Nsg36
NsbsS'butterlfi'
p1644
(inltk.probability
FreqDist
p1645
(dp1646
g28
I1
sg29
(dp1647
S'OBJ'
p1648
I1
ssg35
Nsg36
NsbsS'toward'
p1649
(inltk.probability
FreqDist
p1650
(dp1651
g28
I398
sg29
(dp1652
S'ONTO'
p1653
I2
sS'TOWARD'
p1654
I393
sg767
I1
sS'ORIENT'
p1655
I1
sS'AGAINST'
p1656
I1
ssg35
Nsg36
NsbsS'seri'
p1657
(inltk.probability
FreqDist
p1658
(dp1659
g28
I1
sg29
(dp1660
S'ROUTE'
p1661
I1
ssg35
Nsg36
NsbsS'and'
p1662
(inltk.probability
FreqDist
p1663
(dp1664
g28
I1951
sg29
(dp1665
g1069
I598
sS'LOC'
p1666
I1
sg886
I1
sS'DET'
p1667
I2
sS'THEN'
p1668
I1349
ssg35
Nsg36
NsbsS'laft'
p1669
(inltk.probability
FreqDist
p1670
(dp1671
g28
I1
sg29
(dp1672
S'DIR'
p1673
I1
ssg35
Nsg36
NsbsS'nothign'
p1674
(inltk.probability
FreqDist
p1675
(dp1676
g28
I1
sg29
(dp1677
S'OBJ'
p1678
I1
ssg35
Nsg36
NsbsS'grayish'
p1679
(inltk.probability
FreqDist
p1680
(dp1681
g28
I3
sg29
(dp1682
S'DET'
p1683
I1
sS'APPEAR'
p1684
I2
ssg35
Nsg36
NsbsS'ani'
p1685
(inltk.probability
FreqDist
p1686
(dp1687
g28
I7
sg29
(dp1688
g287
I4
sS'DET'
p1689
I3
ssg35
Nsg36
NsbsS'alley'
p1690
(inltk.probability
FreqDist
p1691
(dp1692
g28
I181
sg29
(dp1693
S'PATH'
p1694
I181
ssg35
Nsg36
NsbsS'intersectino'
p1695
(inltk.probability
FreqDist
p1696
(dp1697
g28
I1
sg29
(dp1698
S'STRUCT'
p1699
I1
ssg35
Nsg36
NsbsS'have'
p1700
(inltk.probability
FreqDist
p1701
(dp1702
g28
I84
sg29
(dp1703
S'AUX'
p1704
I25
sS'SEE'
p1705
I2
sS'HAS'
p1706
I47
sS'ORIENT'
p1707
I10
ssg35
Nsg36
NsbsS'need'
p1708
(inltk.probability
FreqDist
p1709
(dp1710
g28
I3
sg29
(dp1711
S'AUX'
p1712
I1
sS'STRUCT'
p1713
I2
ssg35
Nsg36
NsbsS'squar'
p1714
(inltk.probability
FreqDist
p1715
(dp1716
g28
I59
sg29
(dp1717
S'LOC'
p1718
I15
sS'DIST'
p1719
I3
sS'STRUCT'
p1720
I38
sS'STRUCTURAL'
p1721
I3
ssg35
Nsg36
NsbsS'hten'
p1722
(inltk.probability
FreqDist
p1723
(dp1724
g28
I1
sg29
(dp1725
S'THEN'
p1726
I1
ssg35
Nsg36
NsbsS'-'
(inltk.probability
FreqDist
p1727
(dp1728
g28
I251
sg29
(dp1729
S'HYPHEN'
p1730
I251
ssg35
Nsg36
NsbsS'couch'
p1731
(inltk.probability
FreqDist
p1732
(dp1733
g28
I11
sg29
(dp1734
S'PATH'
p1735
I1
sS'OBJ'
p1736
I10
ssg35
Nsg36
NsbsS'also'
p1737
(inltk.probability
FreqDist
p1738
(dp1739
g28
I23
sg29
(dp1740
S'META'
p1741
I23
ssg35
Nsg36
NsbsS'find'
p1742
(inltk.probability
FreqDist
p1743
(dp1744
g28
I69
sg29
(dp1745
S'ARRIVE'
p1746
I1
sS'FIND'
p1747
I68
ssg35
Nsg36
NsbsS'without'
p1748
(inltk.probability
FreqDist
p1749
(dp1750
g28
I5
sg29
(dp1751
S'DETAIL'
p1752
I5
ssg35
Nsg36
NsbsS'take'
p1753
(inltk.probability
FreqDist
p1754
(dp1755
g28
I773
sg29
(dp1756
S'TURN'
p1757
I632
sS'TRAVEL'
p1758
I140
sS'ORIENT'
p1759
I1
ssg35
Nsg36
NsbsS'which'
p1760
(inltk.probability
FreqDist
p1761
(dp1762
g28
I46
sg29
(dp1763
S'LOC'
p1764
I1
sg366
I1
sS'DETAIL'
p1765
I33
sS'REF'
p1766
I11
ssg35
Nsg36
NsbsS'green'
p1767
(inltk.probability
FreqDist
p1768
(dp1769
g28
I119
sg29
(dp1770
S'APPEAR'
p1771
I119
ssg35
Nsg36
NsbsS'singl'
p1772
(inltk.probability
FreqDist
p1773
(dp1774
g28
I1
sg29
(dp1775
S'COUNT'
p1776
I1
ssg35
Nsg36
NsbsS'honeycomb'
p1777
(inltk.probability
FreqDist
p1778
(dp1779
g28
I8
sg29
(dp1780
S'APPEAR'
p1781
I8
ssg35
Nsg36
NsbsS'hallwya'
p1782
(inltk.probability
FreqDist
p1783
(dp1784
g28
I1
sg29
(dp1785
S'PATH'
p1786
I1
ssg35
Nsg36
NsbsS'begin'
p1787
(inltk.probability
FreqDist
p1788
(dp1789
g28
I2
sg29
(dp1790
S'TEXT'
p1791
I1
sS'SIDE'
p1792
I1
ssg35
Nsg36
NsbsS'sure'
p1793
(inltk.probability
FreqDist
p1794
(dp1795
g28
I20
sg29
(dp1796
S'META'
p1797
I1
sS'ORIENT'
p1798
I19
ssg35
Nsg36
NsbsS'unless'
p1799
(inltk.probability
FreqDist
p1800
(dp1801
g28
I1
sg29
(dp1802
S'THEN'
p1803
I1
ssg35
Nsg36
NsbsS'shade'
p1804
(inltk.probability
FreqDist
p1805
(dp1806
g28
I2
sg29
(dp1807
S'OBJ'
p1808
I2
ssg35
Nsg36
NsbsS'interesct'
p1809
(inltk.probability
FreqDist
p1810
(dp1811
g28
I2
sg29
(dp1812
S'STRUCT'
p1813
I2
ssg35
Nsg36
NsbsS'though'
p1814
(inltk.probability
FreqDist
p1815
(dp1816
g28
I3
sg29
(dp1817
S'CC'
p1818
I3
ssg35
Nsg36
NsbsS'previou'
p1819
(inltk.probability
FreqDist
p1820
(dp1821
g28
I2
sg29
(dp1822
S'BEFORE'
p1823
I2
ssg35
Nsg36
NsbsS'reach'
p1824
(inltk.probability
FreqDist
p1825
(dp1826
g28
I242
sg29
(dp1827
S'ARRIVE'
p1828
I242
ssg35
Nsg36
NsbsS'butterfli'
p1829
(inltk.probability
FreqDist
p1830
(dp1831
g28
I157
sg29
(dp1832
S'OBJ'
p1833
I157
ssg35
Nsg36
NsbsS'regular'
p1834
(inltk.probability
FreqDist
p1835
(dp1836
g28
I1
sg29
(dp1837
S'APPEAR'
p1838
I1
ssg35
Nsg36
NsbsS'nothing'
p1839
(inltk.probability
FreqDist
p1840
(dp1841
g28
I6
sg29
(dp1842
g1404
I1
sS'OBJ'
p1843
I5
ssg35
Nsg36
NsbsS'segment'
p1844
(inltk.probability
FreqDist
p1845
(dp1846
g28
I334
sg29
(dp1847
S'LOC'
p1848
I1
sS'DIST'
p1849
I308
sS'SEGMENT'
p1850
I19
sS'STRUCT'
p1851
I6
ssg35
Nsg36
NsbsS'don'
p1852
(inltk.probability
FreqDist
p1853
(dp1854
g28
I2
sg29
(dp1855
S'AUX'
p1856
I1
sg1261
I1
ssg35
Nsg36
NsbsS'coatrack'
p1857
(inltk.probability
FreqDist
p1858
(dp1859
g28
I5
sg29
(dp1860
S'OBJ'
p1861
I5
ssg35
Nsg36
NsbsS'flor'
p1862
(inltk.probability
FreqDist
p1863
(dp1864
g28
I3
sg29
(dp1865
S'PATH'
p1866
I3
ssg35
Nsg36
NsbsS'clear'
p1867
(inltk.probability
FreqDist
p1868
(dp1869
g28
I1
sg29
(dp1870
S'OBJ'
p1871
I1
ssg35
Nsg36
NsbsS'cover'
p1872
(inltk.probability
FreqDist
p1873
(dp1874
g28
I1
sg29
(dp1875
S'TRAVEL'
p1876
I1
ssg35
Nsg36
NsbsS'doe'
p1877
(inltk.probability
FreqDist
p1878
(dp1879
g28
I4
sg29
(dp1880
S'AUX'
p1881
I3
sg886
I1
ssg35
Nsg36
NsbsS'fishi'
p1882
(inltk.probability
FreqDist
p1883
(dp1884
g28
I1
sg29
(dp1885
S'APPEAR'
p1886
I1
ssg35
Nsg36
NsbsS'lampshad'
p1887
(inltk.probability
FreqDist
p1888
(dp1889
g28
I1
sg29
(dp1890
S'OBJ'
p1891
I1
ssg35
Nsg36
NsbsS'someth'
p1892
(inltk.probability
FreqDist
p1893
(dp1894
g28
I2
sg29
(dp1895
S'OBJ'
p1896
I2
ssg35
Nsg36
NsbsS'came'
p1897
(inltk.probability
FreqDist
p1898
(dp1899
g28
I6
sg29
(dp1900
S'TRAVEL'
p1901
I4
sg599
I2
ssg35
Nsg36
NsbsS'tke'
p1902
(inltk.probability
FreqDist
p1903
(dp1904
g28
I1
sg29
(dp1905
S'TRAVEL'
p1906
I1
ssg35
Nsg36
NsbsS'show'
p1907
(inltk.probability
FreqDist
p1908
(dp1909
g28
I1
sg29
(dp1910
S'HAS'
p1911
I1
ssg35
Nsg36
NsbsS'opposit'
p1912
(inltk.probability
FreqDist
p1913
(dp1914
g28
I21
sg29
(dp1915
S'RELDIST'
p1916
I11
sS'AWAY'
p1917
I4
sS'DIR'
p1918
I2
sS'STRUCTURAL'
p1919
I4
ssg35
Nsg36
NsbsS'bring'
p1920
(inltk.probability
FreqDist
p1921
(dp1922
g28
I1
sg29
(dp1923
S'STRUCT'
p1924
I1
ssg35
Nsg36
NsbsS'directli'
p1925
(inltk.probability
FreqDist
p1926
(dp1927
g28
I10
sg29
(dp1928
S'ADV'
p1929
I10
ssg35
Nsg36
NsbsS'corner'
p1930
(inltk.probability
FreqDist
p1931
(dp1932
g28
I188
sg29
(dp1933
S'STRUCT'
p1934
I188
ssg35
Nsg36
NsbsS'longer'
p1935
(inltk.probability
FreqDist
p1936
(dp1937
g28
I44
sg29
(dp1938
S'STRUCTURAL'
p1939
I44
ssg35
Nsg36
NsbsS'conatain'
p1940
(inltk.probability
FreqDist
p1941
(dp1942
g28
I2
sg29
(dp1943
S'HAS'
p1944
I1
sS'DETAIL'
p1945
I1
ssg35
Nsg36
NsbsS'ground'
p1946
(inltk.probability
FreqDist
p1947
(dp1948
g28
I29
sg29
(dp1949
S'PATH'
p1950
I14
sS'OBJ'
p1951
I15
ssg35
Nsg36
NsbsS'onli'
p1952
(inltk.probability
FreqDist
p1953
(dp1954
g28
I63
sg29
(dp1955
S'ADV'
p1956
I16
sS'AUX'
p1957
I1
sg497
I1
sS'DET'
p1958
I45
ssg35
Nsg36
NsbsS'locat'
p1959
(inltk.probability
FreqDist
p1960
(dp1961
g28
I42
sg29
(dp1962
S'LOC'
p1963
I35
sS'ORIENT'
p1964
I6
sS'FIND'
p1965
I1
ssg35
Nsg36
NsbsS'pretti'
p1966
(inltk.probability
FreqDist
p1967
(dp1968
g28
I1
sg29
(dp1969
S'ADV'
p1970
I1
ssg35
Nsg36
NsbsS'behind'
p1971
(inltk.probability
FreqDist
p1972
(dp1973
g28
I29
sg29
(dp1974
S'SIDE'
p1975
I28
sS'DIR'
p1976
I1
ssg35
Nsg36
NsbsS'should'
p1977
(inltk.probability
FreqDist
p1978
(dp1979
g28
I286
sg29
(dp1980
g128
I286
ssg35
Nsg36
NsbsS'foward'
p1981
(inltk.probability
FreqDist
p1982
(dp1983
g28
I36
sg29
(dp1984
S'DIR'
p1985
I36
ssg35
Nsg36
NsbsS'wood'
p1986
(inltk.probability
FreqDist
p1987
(dp1988
g28
I110
sg29
(dp1989
S'APPEAR'
p1990
I110
ssg35
Nsg36
NsbsS'black'
p1991
(inltk.probability
FreqDist
p1992
(dp1993
g28
I293
sg29
(dp1994
S'APPEAR'
p1995
I293
ssg35
Nsg36
NsbsS'tilll'
p1996
(inltk.probability
FreqDist
p1997
(dp1998
g28
I1
sg29
(dp1999
S'UNTIL'
p2000
I1
ssg35
Nsg36
NsbsS'tinto'
p2001
(inltk.probability
FreqDist
p2002
(dp2003
g28
I1
sg29
(dp2004
S'ONTO'
p2005
I1
ssg35
Nsg36
NsbsS'hope'
p2006
(inltk.probability
FreqDist
p2007
(dp2008
g28
I1
sg29
(dp2009
S'META'
p2010
I1
ssg35
Nsg36
NsbsS'do'
p2011
(inltk.probability
FreqDist
p2012
(dp2013
g28
I10
sg29
(dp2014
S'AUX'
p2015
I5
sS'META'
p2016
I5
ssg35
Nsg36
NsbsS'eisl'
p2017
(inltk.probability
FreqDist
p2018
(dp2019
g28
I16
sg29
(dp2020
S'OBJ'
p2021
I16
ssg35
Nsg36
NsbsS'halllway'
p2022
(inltk.probability
FreqDist
p2023
(dp2024
g28
I1
sg29
(dp2025
S'PATH'
p2026
I1
ssg35
Nsg36
NsbsS'get'
p2027
(inltk.probability
FreqDist
p2028
(dp2029
g28
I134
sg29
(dp2030
S'ARRIVE'
p2031
I128
sg220
I1
sS'ORIENT'
p2032
I2
sS'FIND'
p2033
I3
ssg35
Nsg36
NsbsS'stop'
p2034
(inltk.probability
FreqDist
p2035
(dp2036
g28
I233
sg29
(dp2037
S'LOC'
p2038
I9
sS'RELDIST'
p2039
I1
sS'DIST'
p2040
I73
sS'STRUCT'
p2041
I4
sS'STOP'
p2042
I145
sS'S'
I1
ssg35
Nsg36
NsbsS'pave'
p2043
(inltk.probability
FreqDist
p2044
(dp2045
g28
I1
sg29
(dp2046
S'HAS'
p2047
I1
ssg35
Nsg36
NsbsS'ceil'
p2048
(inltk.probability
FreqDist
p2049
(dp2050
g28
I1
sg29
(dp2051
S'STRUCT'
p2052
I1
ssg35
Nsg36
NsbsS'cannot'
p2053
(inltk.probability
FreqDist
p2054
(dp2055
g28
I8
sg29
(dp2056
S'AUX'
p2057
I8
ssg35
Nsg36
NsbsS'longest'
p2058
(inltk.probability
FreqDist
p2059
(dp2060
g28
I7
sg29
(dp2061
S'OBJ'
p2062
I1
sS'PATHDIR'
p2063
I1
sS'APPEAR'
p2064
I1
sS'STRUCTURAL'
p2065
I4
ssg35
Nsg36
NsbsS'rech'
p2066
(inltk.probability
FreqDist
p2067
(dp2068
g28
I2
sg29
(dp2069
S'ARRIVE'
p2070
I2
ssg35
Nsg36
NsbsS'gray'
p2071
(inltk.probability
FreqDist
p2072
(dp2073
g28
I87
sg29
(dp2074
S'APPEAR'
p2075
I87
ssg35
Nsg36
NsbsS'bar'
p2076
(inltk.probability
FreqDist
p2077
(dp2078
g28
I4
sg29
(dp2079
g1292
I2
sS'APPEAR'
p2080
I2
ssg35
Nsg36
NsbsS'artist'
p2081
(inltk.probability
FreqDist
p2082
(dp2083
g28
I6
sg29
(dp2084
S'OBJ'
p2085
I6
ssg35
Nsg36
NsbsS'spce'
p2086
(inltk.probability
FreqDist
p2087
(dp2088
g28
I1
sg29
(dp2089
S'DIST'
p2090
I1
ssg35
Nsg36
NsbsS'postit'
p2091
(inltk.probability
FreqDist
p2092
(dp2093
g28
I2
sg29
(dp2094
S'POS'
p2095
I2
ssg35
Nsg36
NsbsS'patch'
p2096
(inltk.probability
FreqDist
p2097
(dp2098
g28
I3
sg29
(dp2099
S'PATH'
p2100
I3
ssg35
Nsg36
NsbsS'twice'
p2101
(inltk.probability
FreqDist
p2102
(dp2103
g28
I98
sg29
(dp2104
S'COUNT'
p2105
I98
ssg35
Nsg36
NsbsS'contain'
p2106
(inltk.probability
FreqDist
p2107
(dp2108
g28
I94
sg29
(dp2109
S'HAS'
p2110
I94
ssg35
Nsg36
NsbsS'witht'
p2111
(inltk.probability
FreqDist
p2112
(dp2113
g28
I2
sg29
(dp2114
S'DETAIL'
p2115
I2
ssg35
Nsg36
NsbsS'where'
p2116
(inltk.probability
FreqDist
p2117
(dp2118
g28
I149
sg29
(dp2119
S'LOC'
p2120
I44
sS'COND'
p2121
I1
sS'DETAIL'
p2122
I98
sg125
I6
ssg35
Nsg36
NsbsS'view'
p2123
(inltk.probability
FreqDist
p2124
(dp2125
g28
I1
sg29
(dp2126
S'SEE'
p2127
I1
ssg35
Nsg36
NsbsS'segmentsm'
p2128
(inltk.probability
FreqDist
p2129
(dp2130
g28
I1
sg29
(dp2131
S'DIST'
p2132
I1
ssg35
Nsg36
NsbsS'set'
p2133
(inltk.probability
FreqDist
p2134
(dp2135
g28
I12
sg29
(dp2136
S'OBJ'
p2137
I12
ssg35
Nsg36
NsbsS'art'
p2138
(inltk.probability
FreqDist
p2139
(dp2140
g28
I7
sg29
(dp2141
S'OBJ'
p2142
I7
ssg35
Nsg36
NsbsS'farthest'
p2143
(inltk.probability
FreqDist
p2144
(dp2145
g28
I5
sg29
(dp2146
S'RELDIST'
p2147
I5
ssg35
Nsg36
NsbsS'w/'
p2148
(inltk.probability
FreqDist
p2149
(dp2150
g28
I1
sg29
(dp2151
S'DETAIL'
p2152
I1
ssg35
Nsg36
NsbsS'flooor'
p2153
(inltk.probability
FreqDist
p2154
(dp2155
g28
I1
sg29
(dp2156
S'APPEAR'
p2157
I1
ssg35
Nsg36
NsbsS'touch'
p2158
(inltk.probability
FreqDist
p2159
(dp2160
g28
I1
sg29
(dp2161
S'STRUCT'
p2162
I1
ssg35
Nsg36
NsbsS'see'
p2163
(inltk.probability
FreqDist
p2164
(dp2165
g28
I205
sg29
(dp2166
S'SEE'
p2167
I205
ssg35
Nsg36
NsbsS'bare'
p2168
(inltk.probability
FreqDist
p2169
(dp2170
g28
I61
sg29
(dp2171
S'APPEAR'
p2172
I61
ssg35
Nsg36
NsbsS'are'
p2173
(inltk.probability
FreqDist
p2174
(dp2175
g28
I307
sg29
(dp2176
S'AUX'
p2177
I80
sS'IS'
p2178
I227
ssg35
Nsg36
NsbsS'fail'
p2179
(inltk.probability
FreqDist
p2180
(dp2181
g28
I1
sg29
(dp2182
S'TEXT'
p2183
I1
ssg35
Nsg36
NsbsS'close'
p2184
(inltk.probability
FreqDist
p2185
(dp2186
g28
I3
sg29
(dp2187
S'LOC'
p2188
I1
sS'RELDIST'
p2189
I2
ssg35
Nsg36
NsbsS'becaus'
p2190
(inltk.probability
FreqDist
p2191
(dp2192
g28
I1
sg29
(dp2193
S'THEN'
p2194
I1
ssg35
Nsg36
NsbsS'closer'
p2195
(inltk.probability
FreqDist
p2196
(dp2197
g28
I3
sg29
(dp2198
S'RELDIST'
p2199
I3
ssg35
Nsg36
NsbsS'pattern'
p2200
(inltk.probability
FreqDist
p2201
(dp2202
g28
I15
sg29
(dp2203
S'PATH'
p2204
I3
sS'APPEAR'
p2205
I12
ssg35
Nsg36
NsbsS'away'
p2206
(inltk.probability
FreqDist
p2207
(dp2208
g28
I108
sg29
(dp2209
S'RELDIST'
p2210
I2
sS'AWAY'
p2211
I106
ssg35
Nsg36
NsbsS'3'
(inltk.probability
FreqDist
p2212
(dp2213
g28
I173
sg29
(dp2214
S'COUNT'
p2215
I36
sS'P'
I135
sg767
I2
ssg35
Nsg36
NsbsS'between'
p2216
(inltk.probability
FreqDist
p2217
(dp2218
g28
I42
sg29
(dp2219
S'BETWEEN'
p2220
I42
ssg35
Nsg36
NsbsS'drawn'
p2221
(inltk.probability
FreqDist
p2222
(dp2223
g28
I1
sg29
(dp2224
S'DETAIL'
p2225
I1
ssg35
Nsg36
NsbsS'neither'
p2226
(inltk.probability
FreqDist
p2227
(dp2228
g28
I2
sg29
(dp2229
S'NOT'
p2230
I2
ssg35
Nsg36
NsbsS'across'
p2231
(inltk.probability
FreqDist
p2232
(dp2233
g28
I73
sg29
(dp2234
S'ARRIVE'
p2235
I1
sS'ACROSS'
p2236
I72
ssg35
Nsg36
NsbsS'altern'
p2237
(inltk.probability
FreqDist
p2238
(dp2239
g28
I1
sg29
(dp2240
S'THEN'
p2241
I1
ssg35
Nsg36
NsbsS'amek'
p2242
(inltk.probability
FreqDist
p2243
(dp2244
g28
I1
sg29
(dp2245
S'TURN'
p2246
I1
ssg35
Nsg36
NsbsS'wa'
p2247
(inltk.probability
FreqDist
p2248
(dp2249
g28
I1
sg29
(dp2250
S'HAS'
p2251
I1
ssg35
Nsg36
NsbsS'white'
p2252
(inltk.probability
FreqDist
p2253
(dp2254
g28
I29
sg29
(dp2255
S'APPEAR'
p2256
I29
ssg35
Nsg36
NsbsS'key'
p2257
(inltk.probability
FreqDist
p2258
(dp2259
g28
I1
sg29
(dp2260
S'META'
p2261
I1
ssg35
Nsg36
NsbsS'wth'
p2262
(inltk.probability
FreqDist
p2263
(dp2264
g28
I1
sg29
(dp2265
S'PART'
p2266
I1
ssg35
Nsg36
NsbsS'comb'
p2267
(inltk.probability
FreqDist
p2268
(dp2269
g28
I1
sg29
(dp2270
g751
I1
ssg35
Nsg36
NsbsS'come'
p2271
(inltk.probability
FreqDist
p2272
(dp2273
g28
I95
sg29
(dp2274
S'ARRIVE'
p2275
I91
sS'STRUCT'
p2276
I4
ssg35
Nsg36
NsbsS'addit'
p2277
(inltk.probability
FreqDist
p2278
(dp2279
g28
I1
sg29
(dp2280
S'ORDER'
p2281
I1
ssg35
Nsg36
NsbsS'both'
p2282
(inltk.probability
FreqDist
p2283
(dp2284
g28
I20
sg29
(dp2285
S'COUNT'
p2286
I4
sS'DET'
p2287
I16
ssg35
Nsg36
NsbsS'last'
p2288
(inltk.probability
FreqDist
p2289
(dp2290
g28
I62
sg29
(dp2291
S'ORDER'
p2292
I62
ssg35
Nsg36
NsbsS'howev'
p2293
(inltk.probability
FreqDist
p2294
(dp2295
g28
I2
sg29
(dp2296
S'META'
p2297
I2
ssg35
Nsg36
NsbsS'against'
p2298
(inltk.probability
FreqDist
p2299
(dp2300
g28
I34
sg29
(dp2301
S'AGAINST'
p2302
I34
ssg35
Nsg36
NsbsS'nearbi'
p2303
(inltk.probability
FreqDist
p2304
(dp2305
g28
I3
sg29
(dp2306
S'LOC'
p2307
I1
sS'RELDIST'
p2308
I1
sS'APPEAR'
p2309
I1
ssg35
Nsg36
NsbsS's'
(inltk.probability
FreqDist
p2310
(dp2311
g28
I18
sg29
(dp2312
g1260
I16
sg1264
I1
sg1265
I1
ssg35
Nsg36
NsbsS'epink'
p2313
(inltk.probability
FreqDist
p2314
(dp2315
g28
I1
sg29
(dp2316
S'APPEAR'
p2317
I1
ssg35
Nsg36
NsbsS'simpli'
p2318
(inltk.probability
FreqDist
p2319
(dp2320
g28
I1
sg29
(dp2321
S'ADV'
p2322
I1
ssg35
Nsg36
NsbsS'point'
p2323
(inltk.probability
FreqDist
p2324
(dp2325
g28
I11
sg29
(dp2326
S'LOC'
p2327
I11
ssg35
Nsg36
NsbsS'color'
p2328
(inltk.probability
FreqDist
p2329
(dp2330
g28
I35
sg29
(dp2331
S'APPEAR'
p2332
I35
ssg35
Nsg36
NsbsS'anopth'
p2333
(inltk.probability
FreqDist
p2334
(dp2335
g28
I1
sg29
(dp2336
S'DET'
p2337
I1
ssg35
Nsg36
NsbsS'arriv'
p2338
(inltk.probability
FreqDist
p2339
(dp2340
g28
I15
sg29
(dp2341
S'ARRIVE'
p2342
I15
ssg35
Nsg36
NsbsS'walk'
p2343
(inltk.probability
FreqDist
p2344
(dp2345
g28
I802
sg29
(dp2346
S'DIST'
p2347
I2
sS'PATHDIR'
p2348
I1
sS'TRAVEL'
p2349
I791
sS'PATH'
p2350
I5
sS'AUX'
p2351
I1
sS'TOWARD'
p2352
I2
ssg35
Nsg36
NsbsS'pole'
p2353
(inltk.probability
FreqDist
p2354
(dp2355
g28
I2
sg29
(dp2356
S'OBJ'
p2357
I2
ssg35
Nsg36
NsbsS'quit'
p2358
(inltk.probability
FreqDist
p2359
(dp2360
g28
I2
sg29
(dp2361
S'ADV'
p2362
I2
ssg35
Nsg36
NsbsS'coupl'
p2363
(inltk.probability
FreqDist
p2364
(dp2365
g28
I1
sg29
(dp2366
g497
I1
ssg35
Nsg36
NsbsS'stretch'
p2367
(inltk.probability
FreqDist
p2368
(dp2369
g28
I6
sg29
(dp2370
S'PATHDIR'
p2371
I6
ssg35
Nsg36
NsbsS'three'
p2372
(inltk.probability
FreqDist
p2373
(dp2374
g28
I131
sg29
(dp2375
S'COUNT'
p2376
I111
sS'P'
I20
ssg35
Nsg36
NsbsS'empti'
p2377
(inltk.probability
FreqDist
p2378
(dp2379
g28
I29
sg29
(dp2380
S'OBJ'
p2381
I29
ssg35
Nsg36
NsbsS'.'
(inltk.probability
FreqDist
p2382
(dp2383
g28
I2
sg29
(dp2384
S'PUNCT'
p2385
I1
sS'POS'
p2386
I1
ssg35
Nsg36
NsbsS'besid'
p2387
(inltk.probability
FreqDist
p2388
(dp2389
g28
I1
sg29
(dp2390
S'META'
p2391
I1
ssg35
Nsg36
NsbsS'brick'
p2392
(inltk.probability
FreqDist
p2393
(dp2394
g28
I456
sg29
(dp2395
S'PATH'
p2396
I9
sS'OBJ'
p2397
I50
sS'APPEAR'
p2398
I397
ssg35
Nsg36
NsbsS'immedi'
p2399
(inltk.probability
FreqDist
p2400
(dp2401
g28
I15
sg29
(dp2402
S'RELDIST'
p2403
I15
ssg35
Nsg36
NsbsS'po'
p2404
(inltk.probability
FreqDist
p2405
(dp2406
g28
I18
sg29
(dp2407
g2386
I18
ssg35
Nsg36
NsbsS'board'
p2408
(inltk.probability
FreqDist
p2409
(dp2410
g28
I13
sg29
(dp2411
g2142
I13
ssg35
Nsg36
NsbsS'imag'
p2412
(inltk.probability
FreqDist
p2413
(dp2414
g28
I1
sg29
(dp2415
S'OBJ'
p2416
I1
ssg35
Nsg36
NsbsS'N'
(inltk.probability
FreqDist
p2417
(dp2418
g28
I9009
sg29
(dp2419
S''
I3
sg395
I414
sg396
I15
sg397
I261
sg398
I177
sg399
I78
sg400
I21
sg401
I6
sg402
I9
sg403
I141
sg404
I3
sg405
I78
sg406
I171
sg407
I42
sg408
I117
sg409
I540
sg410
I45
sg411
I69
sg412
I63
sg413
I93
sg414
I111
sg415
I3
sg416
I9
sg417
I57
sg418
I24
sg419
I9
sg420
I48
sg421
I156
sg422
I12
sg423
I384
sg424
I42
sg425
I258
sg426
I45
sg427
I27
sg428
I12
sg429
I93
sg430
I3
sg431
I810
sg432
I57
sg433
I21
sg434
I42
sg435
I18
sg436
I84
sS'P'
I48
sS'S'
I1860
sg437
I6
sg438
I24
sg439
I6
sg440
I57
sg441
I105
sg442
I33
sg443
I60
sg444
I63
sg445
I6
sg446
I930
sg447
I57
sg448
I132
sg449
I264
sg450
I162
sg451
I84
sg452
I6
sg453
I60
sg454
I72
sg455
I15
sg456
I66
sg457
I66
sg458
I6
sg459
I51
sg460
I99
ssg35
Nsg36
NsbsS'togeth'
p2420
(inltk.probability
FreqDist
p2421
(dp2422
g28
I1
sg29
(dp2423
S'STRUCT'
p2424
I1
ssg35
Nsg36
NsbsS'taek'
p2425
(inltk.probability
FreqDist
p2426
(dp2427
g28
I1
sg29
(dp2428
S'TRAVEL'
p2429
I1
ssg35
Nsg36
NsbsS'those'
p2430
(inltk.probability
FreqDist
p2431
(dp2432
g28
I6
sg29
(dp2433
S'REF'
p2434
I5
sS'DET'
p2435
I1
ssg35
Nsg36
NsbsS'furnitut'
p2436
(inltk.probability
FreqDist
p2437
(dp2438
g28
I1
sg29
(dp2439
S'OBJ'
p2440
I1
ssg35
Nsg36
NsbsS'towad'
p2441
(inltk.probability
FreqDist
p2442
(dp2443
g28
I1
sg29
(dp2444
S'TOWARD'
p2445
I1
ssg35
Nsg36
NsbsS'uncertain'
p2446
(inltk.probability
FreqDist
p2447
(dp2448
g28
I1
sg29
(dp2449
S'META'
p2450
I1
ssg35
Nsg36
NsbsS'look'
p2451
(inltk.probability
FreqDist
p2452
(dp2453
g28
I116
sg29
(dp2454
g302
I2
sS'OBJ'
p2455
I2
sS'APPEAR'
p2456
I13
sS'ORIENT'
p2457
I80
sg303
I1
sS'FIND'
p2458
I18
ssg35
Nsg36
NsbsS'reddish'
p2459
(inltk.probability
FreqDist
p2460
(dp2461
g28
I5
sg29
(dp2462
S'APPEAR'
p2463
I5
ssg35
Nsg36
NsbsS'these'
p2464
(inltk.probability
FreqDist
p2465
(dp2466
g28
I5
sg29
(dp2467
S'REF'
p2468
I1
sS'DET'
p2469
I4
ssg35
Nsg36
NsbsS'plain'
p2470
(inltk.probability
FreqDist
p2471
(dp2472
g28
I40
sg29
(dp2473
S'APPEAR'
p2474
I40
ssg35
Nsg36
NsbsS'straight'
p2475
(inltk.probability
FreqDist
p2476
(dp2477
g28
I288
sg29
(dp2478
S'SIDE'
p2479
I1
sS'DIR'
p2480
I285
sS'STRUCTURAL'
p2481
I2
ssg35
Nsg36
NsbsS'will'
p2482
(inltk.probability
FreqDist
p2483
(dp2484
g28
I262
sg29
(dp2485
g1957
I257
sS'IS'
p2486
I3
sS'META'
p2487
I1
sg75
I1
ssg35
Nsg36
NsbsS'while'
p2488
(inltk.probability
FreqDist
p2489
(dp2490
g28
I1
sg29
(dp2491
S'DETAIL'
p2492
I1
ssg35
Nsg36
NsbsS'towar'
p2493
(inltk.probability
FreqDist
p2494
(dp2495
g28
I2
sg29
(dp2496
S'TOWARD'
p2497
I2
ssg35
Nsg36
NsbsS'woodlik'
p2498
(inltk.probability
FreqDist
p2499
(dp2500
g28
I7
sg29
(dp2501
S'APPEAR'
p2502
I7
ssg35
Nsg36
NsbsS'region'
p2503
(inltk.probability
FreqDist
p2504
(dp2505
g28
I1
sg29
(dp2506
S'REGION'
p2507
I1
ssg35
Nsg36
NsbsS'seven'
p2508
(inltk.probability
FreqDist
p2509
(dp2510
g28
I16
sg29
(dp2511
S'COUNT'
p2512
I1
sS'P'
I15
ssg35
Nsg36
NsbsS've'
p2513
(inltk.probability
FreqDist
p2514
(dp2515
g28
I1
sg29
(dp2516
S'AUX'
p2517
I1
ssg35
Nsg36
NsbsS'almost'
p2518
(inltk.probability
FreqDist
p2519
(dp2520
g28
I3
sg29
(dp2521
S'ADV'
p2522
I3
ssg35
Nsg36
NsbsS'is'
p2523
(inltk.probability
FreqDist
p2524
(dp2525
g28
I1132
sg29
(dp2526
S'AUX'
p2527
I40
sS'IS'
p2528
I1087
sg33
I5
ssg35
Nsg36
NsbsS'it'
p2529
(inltk.probability
FreqDist
p2530
(dp2531
g28
I311
sg29
(dp2532
g75
I1
sS'IS'
p2533
I2
sS'DET'
p2534
I9
sg2016
I1
sS'EX'
p2535
I1
sS'REF'
p2536
I297
ssg35
Nsg36
NsbsS'destin'
p2537
(inltk.probability
FreqDist
p2538
(dp2539
g28
I10
sg29
(dp2540
S'POS'
p2541
I10
ssg35
Nsg36
NsbsS'itself'
p2542
(inltk.probability
FreqDist
p2543
(dp2544
g28
I1
sg29
(dp2545
S'REF'
p2546
I1
ssg35
Nsg36
NsbsS'in'
p2547
(inltk.probability
FreqDist
p2548
(dp2549
g28
I554
sg29
(dp2550
S'LOC'
p2551
I287
sS'DIST'
p2552
I1
sS'STRUCT'
p2553
I4
sS'ON'
p2554
I49
sS'IN'
p2555
I12
sS'DETAIL'
p2556
I20
sS'PART'
p2557
I4
sg497
I2
sg979
I1
sS'BETWEEN'
p2558
I13
sS'ALONG'
p2559
I37
sS'TOWARD'
p2560
I34
sS'ONTO'
p2561
I11
sS'SIDE'
p2562
I79
ssg35
Nsg36
NsbsS'recal'
p2563
(inltk.probability
FreqDist
p2564
(dp2565
g28
I1
sg29
(dp2566
g2016
I1
ssg35
Nsg36
NsbsS'id'
p2567
(inltk.probability
FreqDist
p2568
(dp2569
g28
I1
sg29
(dp2570
S'IS'
p2571
I1
ssg35
Nsg36
NsbsS'sever'
p2572
(inltk.probability
FreqDist
p2573
(dp2574
g28
I1
sg29
(dp2575
S'COUNT'
p2576
I1
ssg35
Nsg36
NsbsS'if'
p2577
(inltk.probability
FreqDist
p2578
(dp2579
g28
I87
sg29
(dp2580
g767
I2
sS'COND'
p2581
I85
ssg35
Nsg36
NsbsS'unitl'
p2582
(inltk.probability
FreqDist
p2583
(dp2584
g28
I4
sg29
(dp2585
S'UNTIL'
p2586
I4
ssg35
Nsg36
NsbsS'make'
p2587
(inltk.probability
FreqDist
p2588
(dp2589
g28
I289
sg29
(dp2590
S'TURN'
p2591
I248
sS'STRUCT'
p2592
I24
sS'ORIENT'
p2593
I17
ssg35
Nsg36
NsbsS'cross'
p2594
(inltk.probability
FreqDist
p2595
(dp2596
g28
I39
sg29
(dp2597
S'TRAVEL'
p2598
I1
sS'STRUCTURAL'
p2599
I1
sS'CROSS'
p2600
I12
sS'ACROSS'
p2601
I2
sS'STRUCT'
p2602
I23
ssg35
Nsg36
NsbsS'same'
p2603
(inltk.probability
FreqDist
p2604
(dp2605
g28
I13
sg29
(dp2606
S'LOC'
p2607
I3
sS'DET'
p2608
I9
sS'TEXT'
p2609
I1
ssg35
Nsg36
NsbsS'shorter'
p2610
(inltk.probability
FreqDist
p2611
(dp2612
g28
I12
sg29
(dp2613
S'STRUCTURAL'
p2614
I12
ssg35
Nsg36
NsbsS'corridor'
p2615
(inltk.probability
FreqDist
p2616
(dp2617
g28
I215
sg29
(dp2618
S'PATH'
p2619
I215
ssg35
Nsg36
NsbsS'monarch'
p2620
(inltk.probability
FreqDist
p2621
(dp2622
g28
I1
sg29
(dp2623
S'APPEAR'
p2624
I1
ssg35
Nsg36
NsbsS'complet'
p2625
(inltk.probability
FreqDist
p2626
(dp2627
g28
I1
sg29
(dp2628
g1797
I1
ssg35
Nsg36
NsbsS'oin'
p2629
(inltk.probability
FreqDist
p2630
(dp2631
g28
I1
sg29
(dp2632
S'COUNT'
p2633
I1
ssg35
Nsg36
NsbsS'closest'
p2634
(inltk.probability
FreqDist
p2635
(dp2636
g28
I10
sg29
(dp2637
S'RELDIST'
p2638
I10
ssg35
Nsg36
NsbsS'expans'
p2639
(inltk.probability
FreqDist
p2640
(dp2641
g28
I2
sg29
(dp2642
S'PATHDIR'
p2643
I2
ssg35
Nsg36
NsbsS'foam'
p2644
(inltk.probability
FreqDist
p2645
(dp2646
g28
I1
sg29
(dp2647
S'LOC'
p2648
I1
ssg35
Nsg36
NsbsS'upon'
p2649
(inltk.probability
FreqDist
p2650
(dp2651
g28
I5
sg29
(dp2652
S'LOC'
p2653
I2
sS'ARRIVE'
p2654
I1
sS'COND'
p2655
I1
sS'DETAIL'
p2656
I1
ssg35
Nsg36
NsbsS'cement'
p2657
(inltk.probability
FreqDist
p2658
(dp2659
g28
I19
sg29
(dp2660
S'APPEAR'
p2661
I19
ssg35
Nsg36
NsbsS'inbetween'
p2662
(inltk.probability
FreqDist
p2663
(dp2664
g28
I1
sg29
(dp2665
S'BETWEEN'
p2666
I1
ssg35
Nsg36
NsbsS'canva'
p2667
(inltk.probability
FreqDist
p2668
(dp2669
g28
I3
sg29
(dp2670
g672
I1
sS'APPEAR'
p2671
I2
ssg35
Nsg36
NsbsS'hardwood'
p2672
(inltk.probability
FreqDist
p2673
(dp2674
g28
I3
sg29
(dp2675
S'APPEAR'
p2676
I1
sS'STRUCTURAL'
p2677
I2
ssg35
Nsg36
NsbsS'wherev'
p2678
(inltk.probability
FreqDist
p2679
(dp2680
g28
I2
sg29
(dp2681
S'DET'
p2682
I2
ssg35
Nsg36
NsbsS'off'
p2683
(inltk.probability
FreqDist
p2684
(dp2685
g28
I10
sg29
(dp2686
S'OFF'
p2687
I4
sg597
I6
ssg35
Nsg36
NsbsS'center'
p2688
(inltk.probability
FreqDist
p2689
(dp2690
g28
I4
sg29
(dp2691
S'STRUCT'
p2692
I1
sS'DIR'
p2693
I1
sS'ORIENT'
p2694
I2
ssg35
Nsg36
NsbsS'i'
(inltk.probability
FreqDist
p2695
(dp2696
g28
I16
sg29
(dp2697
g33
I16
ssg35
Nsg36
NsbsS'vacant'
p2698
(inltk.probability
FreqDist
p2699
(dp2700
g28
I1
sg29
(dp2701
S'OBJ'
p2702
I1
ssg35
Nsg36
NsbsS'well'
p2703
(inltk.probability
FreqDist
p2704
(dp2705
g28
I2
sg29
(dp2706
S'META'
p2707
I2
ssg35
Nsg36
NsbsS'remain'
p2708
(inltk.probability
FreqDist
p2709
(dp2710
g28
I1
sg29
(dp2711
S'STOP'
p2712
I1
ssg35
Nsg36
NsbsS'aisl'
p2713
(inltk.probability
FreqDist
p2714
(dp2715
g28
I10
sg29
(dp2716
S'PATH'
p2717
I10
ssg35
Nsg36
NsbsS'exampl'
p2718
(inltk.probability
FreqDist
p2719
(dp2720
g28
I1
sg29
(dp2721
S'META'
p2722
I1
ssg35
Nsg36
NsbsS'choos'
p2723
(inltk.probability
FreqDist
p2724
(dp2725
g28
I1
sg29
(dp2726
S'META'
p2727
I1
ssg35
Nsg36
NsbsS'position'
p2728
(inltk.probability
FreqDist
p2729
(dp2730
g28
I833
sg29
(dp2731
S'LOC'
p2732
I3
sg74
I3
sS'STOP'
p2733
I3
sS'ORIENT'
p2734
I2
sS'POS'
p2735
I822
ssg35
Nsg36
NsbsS'the'
p2736
(inltk.probability
FreqDist
p2737
(dp2738
g28
I6398
sg29
(dp2739
g31
I1
sg2607
I3
sg32
I171
sS'THEN'
p2740
I2
sS'DET'
p2741
I6189
sS'DETAIL'
p2742
I1
sg599
I6
sg252
I25
ssg35
Nsg36
NsbsS'left'
p2743
(inltk.probability
FreqDist
p2744
(dp2745
g28
I1488
sg29
(dp2746
S'META'
p2747
I1
sS'SIDE'
p2748
I1
sS'DIR'
p2749
I1486
ssg35
Nsg36
NsbsS'distanc'
p2750
(inltk.probability
FreqDist
p2751
(dp2752
g28
I12
sg29
(dp2753
S'RELDIST'
p2754
I9
sS'DIST'
p2755
I1
sS'REGION'
p2756
I2
ssg35
Nsg36
NsbsS'just'
p2757
(inltk.probability
FreqDist
p2758
(dp2759
g28
I21
sg29
(dp2760
S'ADV'
p2761
I13
sS'RELDIST'
p2762
I5
sg2391
I1
sS'DETAIL'
p2763
I2
ssg35
Nsg36
NsbsS'greyt'
p2764
(inltk.probability
FreqDist
p2765
(dp2766
g28
I1
sg29
(dp2767
S'APPEAR'
p2768
I1
ssg35
Nsg36
NsbsS'rest'
p2769
(inltk.probability
FreqDist
p2770
(dp2771
g28
I2
sg29
(dp2772
S'PATHDIR'
p2773
I1
sS'SIDE'
p2774
I1
ssg35
Nsg36
NsbsS'front'
p2775
(inltk.probability
FreqDist
p2776
(dp2777
g28
I89
sg29
(dp2778
g2562
I78
sS'DIR'
p2779
I11
ssg35
Nsg36
NsbsS'shape'
p2780
(inltk.probability
FreqDist
p2781
(dp2782
g28
I4
sg29
(dp2783
S'DETAIL'
p2784
I2
sS'STRUCT'
p2785
I2
ssg35
Nsg36
NsbsS'distant'
p2786
(inltk.probability
FreqDist
p2787
(dp2788
g28
I1
sg29
(dp2789
S'RELDIST'
p2790
I1
ssg35
Nsg36
NsbsS'farther'
p2791
(inltk.probability
FreqDist
p2792
(dp2793
g28
I5
sg29
(dp2794
S'RELDIST'
p2795
I5
ssg35
Nsg36
NsbsS'unti'
p2796
(inltk.probability
FreqDist
p2797
(dp2798
g28
I3
sg29
(dp2799
S'UNTIL'
p2800
I3
ssg35
Nsg36
NsbsS'love'
p2801
(inltk.probability
FreqDist
p2802
(dp2803
g28
I1
sg29
(dp2804
S'APPEAR'
p2805
I1
ssg35
Nsg36
NsbsS'unto'
p2806
(inltk.probability
FreqDist
p2807
(dp2808
g28
I1
sg29
(dp2809
S'ONTO'
p2810
I1
ssg35
Nsg36
NsbsS'halfway'
p2811
(inltk.probability
FreqDist
p2812
(dp2813
g28
I1
sg29
(dp2814
S'RELDIST'
p2815
I1
ssg35
Nsg36
NsbsS'easl'
p2816
(inltk.probability
FreqDist
p2817
(dp2818
g28
I42
sg29
(dp2819
S'OBJ'
p2820
I42
ssg35
Nsg36
NsbsS'hal'
p2821
(inltk.probability
FreqDist
p2822
(dp2823
g28
I1
sg29
(dp2824
S'PATH'
p2825
I1
ssg35
Nsg36
NsbsS'$'
(inltk.probability
FreqDist
p2826
(dp2827
g28
I6006
sg29
(dp2828
S''
I2
sg395
I276
sg396
I10
sg397
I174
sg398
I118
sg399
I52
sg400
I14
sg401
I4
sg402
I6
sg403
I94
sg404
I2
sg405
I52
sg406
I114
sg407
I28
sg408
I78
sg409
I360
sg410
I30
sg411
I46
sg412
I42
sg413
I62
sg414
I74
sg415
I2
sg416
I6
sg417
I38
sg418
I16
sg419
I6
sg420
I32
sg421
I104
sg422
I8
sg423
I256
sg424
I28
sg425
I172
sg426
I30
sg427
I18
sg428
I8
sg429
I62
sg430
I2
sg431
I540
sg432
I38
sg433
I14
sg434
I28
sg435
I12
sg436
I56
sS'P'
I32
sS'S'
I1240
sg437
I4
sg438
I16
sg439
I4
sg440
I38
sg441
I70
sg442
I22
sg443
I40
sg444
I42
sg445
I4
sg446
I620
sg447
I38
sg448
I88
sg449
I176
sg450
I108
sg451
I56
sg452
I4
sg453
I40
sg454
I48
sg455
I10
sg456
I44
sg457
I44
sg458
I4
sg459
I34
sg460
I66
ssg35
Nsg36
NsbsS'hint'
p2829
(inltk.probability
FreqDist
p2830
(dp2831
g28
I1
sg29
(dp2832
S'STRUCT'
p2833
I1
ssg35
Nsg36
NsbsS'rose'
p2834
(inltk.probability
FreqDist
p2835
(dp2836
g28
I30
sg29
(dp2837
S'OBJ'
p2838
I1
sS'APPEAR'
p2839
I29
ssg35
Nsg36
NsbsS'onward'
p2840
(inltk.probability
FreqDist
p2841
(dp2842
g28
I3
sg29
(dp2843
S'DIR'
p2844
I3
ssg35
Nsg36
NsbsS'had'
p2845
(inltk.probability
FreqDist
p2846
(dp2847
g28
I1
sg29
(dp2848
S'HAS'
p2849
I1
ssg35
Nsg36
NsbsS'except'
p2850
(inltk.probability
FreqDist
p2851
(dp2852
g28
I2
sg29
(dp2853
S'CC'
p2854
I2
ssg35
Nsg36
NsbsS'littl'
p2855
(inltk.probability
FreqDist
p2856
(dp2857
g28
I12
sg29
(dp2858
S'PATH'
p2859
I1
sS'RELDIST'
p2860
I1
sg220
I1
sg914
I1
sg915
I8
ssg35
Nsg36
NsbsS'bench'
p2861
(inltk.probability
FreqDist
p2862
(dp2863
g28
I184
sg29
(dp2864
S'OBJ'
p2865
I184
ssg35
Nsg36
NsbsS'hay'
p2866
(inltk.probability
FreqDist
p2867
(dp2868
g28
I2
sg29
(dp2869
S'APPEAR'
p2870
I2
ssg35
Nsg36
NsbsS'4'
(inltk.probability
FreqDist
p2871
(dp2872
g28
I150
sg29
(dp2873
S'COUNT'
p2874
I15
sS'P'
I134
sg74
I1
ssg35
Nsg36
NsbsS'hat'
p2875
(inltk.probability
FreqDist
p2876
(dp2877
g28
I37
sg29
(dp2878
S'OBJ'
p2879
I37
ssg35
Nsg36
NsbsS'...'
p2880
(inltk.probability
FreqDist
p2881
(dp2882
g28
I5
sg29
(dp2883
S'PUNCT'
p2884
I5
ssg35
Nsg36
NsbsS'rean'
p2885
(inltk.probability
FreqDist
p2886
(dp2887
g28
I1
sg29
(dp2888
S'ARRIVE'
p2889
I1
ssg35
Nsg36
NsbsS'around'
p2890
(inltk.probability
FreqDist
p2891
(dp2892
g28
I56
sg29
(dp2893
S'LOC'
p2894
I1
sS'APPROX'
p2895
I1
sS'DIR'
p2896
I54
ssg35
Nsg36
NsbsS'mayb'
p2897
(inltk.probability
FreqDist
p2898
(dp2899
g28
I6
sg29
(dp2900
S'APPROX'
p2901
I6
ssg35
Nsg36
NsbsS'big'
p2902
(inltk.probability
FreqDist
p2903
(dp2904
g28
I8
sg29
(dp2905
S'SIZE'
p2906
I8
ssg35
Nsg36
NsbsS'piec'
p2907
(inltk.probability
FreqDist
p2908
(dp2909
g28
I24
sg29
(dp2910
S'OBJ'
p2911
I24
ssg35
Nsg36
NsbsS'dark'
p2912
(inltk.probability
FreqDist
p2913
(dp2914
g28
I71
sg29
(dp2915
S'APPEAR'
p2916
I71
ssg35
Nsg36
NsbsS'wiht'
p2917
(inltk.probability
FreqDist
p2918
(dp2919
g28
I2
sg29
(dp2920
S'DETAIL'
p2921
I2
ssg35
Nsg36
NsbsS'know'
p2922
(inltk.probability
FreqDist
p2923
(dp2924
g28
I4
sg29
(dp2925
g33
I4
ssg35
Nsg36
NsbsS'ahllway'
p2926
(inltk.probability
FreqDist
p2927
(dp2928
g28
I3
sg29
(dp2929
S'PATH'
p2930
I3
ssg35
Nsg36
NsbsS'roack'
p2931
(inltk.probability
FreqDist
p2932
(dp2933
g28
I1
sg29
(dp2934
S'APPEAR'
p2935
I1
ssg35
Nsg36
NsbsS'bit'
p2936
(inltk.probability
FreqDist
p2937
(dp2938
g28
I11
sg29
(dp2939
g913
I2
sg914
I1
sg915
I8
ssg35
Nsg36
NsbsS'2nd'
p2940
(inltk.probability
FreqDist
p2941
(dp2942
g28
I6
sg29
(dp2943
S'ORDER'
p2944
I6
ssg35
Nsg36
NsbsS'pst'
p2945
(inltk.probability
FreqDist
p2946
(dp2947
g28
I1
sg29
(dp2948
S'PAST'
p2949
I1
ssg35
Nsg36
NsbsS'like'
p2950
(inltk.probability
FreqDist
p2951
(dp2952
g28
I21
sg29
(dp2953
S'APPROX'
p2954
I14
sg74
I4
sS'APPEAR'
p2955
I3
ssg35
Nsg36
NsbsS'specif'
p2956
(inltk.probability
FreqDist
p2957
(dp2958
g28
I1
sg29
(dp2959
S'OBJ'
p2960
I1
ssg35
Nsg36
NsbsS'sofa'
p2961
(inltk.probability
FreqDist
p2962
(dp2963
g28
I23
sg29
(dp2964
S'OBJ'
p2965
I23
ssg35
Nsg36
NsbsS't'
(inltk.probability
FreqDist
p2966
(dp2967
g28
I101
sg29
(dp2968
g1262
I6
sg1261
I1
sS'STRUCT'
p2969
I94
ssg35
Nsg36
NsbsS'tower'
p2970
(inltk.probability
FreqDist
p2971
(dp2972
g28
I101
sg29
(dp2973
S'OBJ'
p2974
I101
ssg35
Nsg36
NsbsS'right'
p2975
(inltk.probability
FreqDist
p2976
(dp2977
g28
I1451
sg29
(dp2978
S'ADV'
p2979
I18
sS'RELDIST'
p2980
I1
sS'APPEAR'
p2981
I1
sS'TEXT'
p2982
I3
sS'REF'
p2983
I5
sS'DIR'
p2984
I1423
ssg35
Nsg36
NsbsS'whe'
p2985
(inltk.probability
FreqDist
p2986
(dp2987
g28
I2
sg29
(dp2988
S'COND'
p2989
I2
ssg35
Nsg36
NsbsS'1st'
p2990
(inltk.probability
FreqDist
p2991
(dp2992
g28
I15
sg29
(dp2993
S'ORDER'
p2994
I15
ssg35
Nsg36
NsbsS'some'
p2995
(inltk.probability
FreqDist
p2996
(dp2997
g28
I8
sg29
(dp2998
S'DET'
p2999
I8
ssg35
Nsg36
NsbsS'back'
p3000
(inltk.probability
FreqDist
p3001
(dp3002
g28
I220
sg29
(dp3003
S'RELDIST'
p3004
I8
sS'OBJ'
p3005
I167
sS'STRUCT'
p3006
I4
sS'AWAY'
p3007
I1
sg74
I1
sS'DIR'
p3008
I39
ssg35
Nsg36
NsbsS'dead'
p3009
(inltk.probability
FreqDist
p3010
(dp3011
g28
I175
sg29
(dp3012
S'ARRIVE'
p3013
I1
sS'STRUCT'
p3014
I173
sg789
I1
ssg35
Nsg36
NsbsS'granit'
p3015
(inltk.probability
FreqDist
p3016
(dp3017
g28
I7
sg29
(dp3018
S'PATH'
p3019
I1
sS'APPEAR'
p3020
I6
ssg35
Nsg36
NsbsS'bigger'
p3021
(inltk.probability
FreqDist
p3022
(dp3023
g28
I1
sg29
(dp3024
S'STRUCTURAL'
p3025
I1
ssg35
Nsg36
NsbsS'scale'
p3026
(inltk.probability
FreqDist
p3027
(dp3028
g28
I8
sg29
(dp3029
S'PATH'
p3030
I1
sS'OBJ'
p3031
I7
ssg35
Nsg36
NsbsS'for'
p3032
(inltk.probability
FreqDist
p3033
(dp3034
g28
I64
sg29
(dp3035
S'ON'
p3036
I1
sS'DIST'
p3037
I14
sg2854
I1
sS'FIND'
p3038
I17
sS'PART'
p3039
I1
sS'P'
I1
sg2722
I1
sS'ORIENT'
p3040
I28
ssg35
Nsg36
NsbsS'bottom'
p3041
(inltk.probability
FreqDist
p3042
(dp3043
g28
I3
sg29
(dp3044
S'STRUCTURAL'
p3045
I3
ssg35
Nsg36
NsbsS'normal'
p3046
(inltk.probability
FreqDist
p3047
(dp3048
g28
I1
sg29
(dp3049
S'APPEAR'
p3050
I1
ssg35
Nsg36
NsbsS'/'
(inltk.probability
FreqDist
p3051
(dp3052
g28
I24
sg29
(dp3053
g2455
I1
sS'CC'
p3054
I4
sg1421
I4
sS'/'
I1
sS'PUNCT'
p3055
I13
sg1420
I1
ssg35
Nsg36
NsbsS'exit'
p3056
(inltk.probability
FreqDist
p3057
(dp3058
g28
I20
sg29
(dp3059
S'EXIT'
p3060
I3
sS'PATHDIR'
p3061
I13
sS'STRUCT'
p3062
I4
ssg35
Nsg36
NsbsS'either'
p3063
(inltk.probability
FreqDist
p3064
(dp3065
g28
I38
sg29
(dp3066
S'CC'
p3067
I11
sS'DET'
p3068
I27
ssg35
Nsg36
NsbsS'be'
p3069
(inltk.probability
FreqDist
p3070
(dp3071
g28
I342
sg29
(dp3072
g128
I35
sS'IS'
p3073
I305
sg1798
I2
ssg35
Nsg36
NsbsS'object'
p3074
(inltk.probability
FreqDist
p3075
(dp3076
g28
I23
sg29
(dp3077
S'OBJ'
p3078
I23
ssg35
Nsg36
NsbsS'run'
p3079
(inltk.probability
FreqDist
p3080
(dp3081
g28
I14
sg29
(dp3082
S'ARRIVE'
p3083
I14
ssg35
Nsg36
NsbsS'each'
p3084
(inltk.probability
FreqDist
p3085
(dp3086
g28
I10
sg29
(dp3087
S'REF'
p3088
I3
sS'DET'
p3089
I7
ssg35
Nsg36
NsbsS'perpendicular'
p3090
(inltk.probability
FreqDist
p3091
(dp3092
g28
I4
sg29
(dp3093
g121
I1
sS'DIR'
p3094
I1
sS'STRUCTURAL'
p3095
I2
ssg35
Nsg36
NsbsS'O'
(inltk.probability
FreqDist
p3096
(dp3097
g28
I3003
sg29
(dp3098
S''
I1
sg395
I138
sg396
I5
sg397
I87
sg398
I59
sg399
I26
sg400
I7
sg401
I2
sg402
I3
sg403
I47
sg404
I1
sg405
I26
sg406
I57
sg407
I14
sg408
I39
sg409
I180
sg410
I15
sg411
I23
sg412
I21
sg413
I31
sg414
I37
sg415
I1
sg416
I3
sg417
I19
sg418
I8
sg419
I3
sg420
I16
sg421
I52
sg422
I4
sg423
I128
sg424
I14
sg425
I86
sg426
I15
sg427
I9
sg428
I4
sg429
I31
sg430
I1
sg431
I270
sg432
I19
sg433
I7
sg434
I14
sg435
I6
sg436
I28
sS'P'
I16
sS'S'
I620
sg437
I2
sg438
I8
sg439
I2
sg440
I19
sg441
I35
sg442
I11
sg443
I20
sg444
I21
sg445
I2
sg446
I310
sg447
I19
sg448
I44
sg449
I88
sg450
I54
sg451
I28
sg452
I2
sg453
I20
sg454
I24
sg455
I5
sg456
I22
sg457
I22
sg458
I2
sg459
I17
sg460
I33
ssg35
Nsg36
NsbsS'stem'
p3099
(inltk.probability
FreqDist
p3100
(dp3101
g28
I1
sg29
(dp3102
S'STRUCT'
p3103
I1
ssg35
Nsg36
NsbsS'step'
p3104
(inltk.probability
FreqDist
p3105
(dp3106
g28
I41
sg29
(dp3107
S'TRAVEL'
p3108
I3
sg497
I1
sS'DIST'
p3109
I37
ssg35
Nsg36
NsbsS'post'
p3110
(inltk.probability
FreqDist
p3111
(dp3112
g28
I16
sg29
(dp3113
g825
I16
ssg35
Nsg36
NsbsS'by'
p3114
(inltk.probability
FreqDist
p3115
(dp3116
g28
I26
sg29
(dp3117
g82
I16
sS'DIST'
p3118
I2
sS'DETAIL'
p3119
I1
sS'PAST'
p3120
I1
sS'PART'
p3121
I4
sS'COND'
p3122
I2
ssg35
Nsg36
NsbsS'proceed'
p3123
(inltk.probability
FreqDist
p3124
(dp3125
g28
I4
sg29
(dp3126
S'TRAVEL'
p3127
I4
ssg35
Nsg36
NsbsS'on'
p3128
(inltk.probability
FreqDist
p3129
(dp3130
g28
I631
sg29
(dp3131
S'COUNT'
p3132
I3
sS'LOC'
p3133
I70
sg538
I2
sS'ON'
p3134
I257
sg3007
I1
sS'DETAIL'
p3135
I1
sS'PART'
p3136
I1
sg672
I1
sS'REL'
p3137
I1
sg918
I3
sS'ALONG'
p3138
I51
sS'ONTO'
p3139
I48
sS'SIDE'
p3140
I192
ssg35
Nsg36
NsbsS'about'
p3141
(inltk.probability
FreqDist
p3142
(dp3143
g28
I13
sg29
(dp3144
S'APPROX'
p3145
I13
ssg35
Nsg36
NsbsS'of'
p3146
(inltk.probability
FreqDist
p3147
(dp3148
g28
I892
sg29
(dp3149
g1510
I12
sS'HAS'
p3150
I1
sS'DIST'
p3151
I1
sg3068
I22
sg2742
I102
sS'PART'
p3152
I542
sg497
I1
sS'COND'
p3153
I4
sS'REL'
p3154
I125
sg252
I25
sS'TYPE'
p3155
I40
sS'SIDE'
p3156
I6
sg1237
I1
sS'OUT'
p3157
I10
ssg35
Nsg36
NsbsS'surround'
p3158
(inltk.probability
FreqDist
p3159
(dp3160
g28
I7
sg29
(dp3161
S'ADV'
p3162
I1
sS'LOC'
p3163
I3
sg3119
I1
sS'APPEAR'
p3164
I2
ssg35
Nsg36
NsbsS'degre'
p3165
(inltk.probability
FreqDist
p3166
(dp3167
g28
I5
sg29
(dp3168
S'TURN'
p3169
I5
ssg35
Nsg36
NsbsS'stand'
p3170
(inltk.probability
FreqDist
p3171
(dp3172
g28
I93
sg29
(dp3173
S'LOC'
p3174
I29
sg1522
I38
sS'ORIENT'
p3175
I2
sS'STOP'
p3176
I24
ssg35
Nsg36
NsbsS'ot'
p3177
(inltk.probability
FreqDist
p3178
(dp3179
g28
I3
sg29
(dp3180
S'UNTIL'
p3181
I2
sg1238
I1
ssg35
Nsg36
NsbsS'or'
p3182
(inltk.probability
FreqDist
p3183
(dp3184
g28
I45
sg29
(dp3185
S'CC'
p3186
I44
sg1404
I1
ssg35
Nsg36
NsbsS'block'
p3187
(inltk.probability
FreqDist
p3188
(dp3189
g28
I127
sg29
(dp3190
S'DIST'
p3191
I28
sS'STRUCT'
p3192
I99
ssg35
Nsg36
NsbsS'into'
p3193
(inltk.probability
FreqDist
p3194
(dp3195
g28
I92
sg29
(dp3196
S'STRUCT'
p3197
I3
sS'INTO'
p3198
I1
sS'ALONG'
p3199
I2
sS'ARRIVE'
p3200
I13
sS'ONTO'
p3201
I46
sS'UNTIL'
p3202
I27
ssg35
Nsg36
NsbsS'within'
p3203
(inltk.probability
FreqDist
p3204
(dp3205
g28
I1
sg29
(dp3206
S'DETAIL'
p3207
I1
ssg35
Nsg36
NsbsS'puke'
p3208
(inltk.probability
FreqDist
p3209
(dp3210
g28
I9
sg29
(dp3211
S'APPEAR'
p3212
I9
ssg35
Nsg36
NsbsS'down'
p3213
(inltk.probability
FreqDist
p3214
(dp3215
g28
I582
sg29
(dp3216
S'ON'
p3217
I6
sg2552
I121
sg945
I2
sS'ORIENT'
p3218
I2
sS'ALONG'
p3219
I415
sS'ONTO'
p3220
I31
sg132
I4
sS'DIR'
p3221
I1
ssg35
Nsg36
NsbsS'doesnt'
p3222
(inltk.probability
FreqDist
p3223
(dp3224
g28
I1
sg29
(dp3225
S'AUX'
p3226
I1
ssg35
Nsg36
NsbsS'opportun'
p3227
(inltk.probability
FreqDist
p3228
(dp3229
g28
I3
sg29
(dp3230
S'LOC'
p3231
I1
sS'STRUCT'
p3232
I1
sS'TURN'
p3233
I1
ssg35
Nsg36
NsbsS'your'
p3234
(inltk.probability
FreqDist
p3235
(dp3236
g28
I533
sg29
(dp3237
S'DET'
p3238
I524
sS'AGENT'
p3239
I9
ssg35
Nsg36
NsbsS'area'
p3240
(inltk.probability
FreqDist
p3241
(dp3242
g28
I66
sg29
(dp3243
S'LOC'
p3244
I5
sS'REGION'
p3245
I60
sS'PATH'
p3246
I1
ssg35
Nsg36
NsbsS'aren'
p3247
(inltk.probability
FreqDist
p3248
(dp3249
g28
I1
sg29
(dp3250
S'IS'
p3251
I1
ssg35
Nsg36
NsbsS'there'
p3252
(inltk.probability
FreqDist
p3253
(dp3254
g28
I278
sg29
(dp3255
g2983
I86
sS'EX'
p3256
I192
ssg35
Nsg36
NsbsS'hex'
p3257
(inltk.probability
FreqDist
p3258
(dp3259
g28
I13
sg29
(dp3260
S'APPEAR'
p3261
I13
ssg35
Nsg36
NsbsS'long'
p3262
(inltk.probability
FreqDist
p3263
(dp3264
g28
I70
sg29
(dp3265
S'RELDIST'
p3266
I2
sg75
I1
sS'STRUCTURAL'
p3267
I67
ssg35
Nsg36
NsbsS'avail'
p3268
(inltk.probability
FreqDist
p3269
(dp3270
g28
I14
sg29
(dp3271
S'STRUCTURAL'
p3272
I14
ssg35
Nsg36
NsbsS'start'
p3273
(inltk.probability
FreqDist
p3274
(dp3275
g28
I46
sg29
(dp3276
S'AUX'
p3277
I3
sg497
I1
sg1236
I1
sS'ORIENT'
p3278
I1
sg1235
I40
ssg35
Nsg36
NsbsS'adjac'
p3279
(inltk.probability
FreqDist
p3280
(dp3281
g28
I1
sg29
(dp3282
S'ORDER'
p3283
I1
ssg35
Nsg36
NsbsS'includ'
p3284
(inltk.probability
FreqDist
p3285
(dp3286
g28
I1
sg29
(dp3287
S'META'
p3288
I1
ssg35
Nsg36
NsbsS'way'
p3289
(inltk.probability
FreqDist
p3290
(dp3291
g28
I249
sg29
(dp3292
S'PATH'
p3293
I7
sg3266
I1
sg32
I172
sS'PATHDIR'
p3294
I69
ssg35
Nsg36
NsbsS'junctur'
p3295
(inltk.probability
FreqDist
p3296
(dp3297
g28
I3
sg29
(dp3298
S'STRUCT'
p3299
I3
ssg35
Nsg36
NsbsS'foor'
p3300
(inltk.probability
FreqDist
p3301
(dp3302
g28
I1
sg29
(dp3303
S'APPEAR'
p3304
I1
ssg35
Nsg36
NsbsS'chunk'
p3305
(inltk.probability
FreqDist
p3306
(dp3307
g28
I1
sg29
(dp3308
S'OBJ'
p3309
I1
ssg35
Nsg36
NsbsS'fork'
p3310
(inltk.probability
FreqDist
p3311
(dp3312
g28
I1
sg29
(dp3313
S'STRUCT'
p3314
I1
ssg35
Nsg36
NsbsS'head'
p3315
(inltk.probability
FreqDist
p3316
(dp3317
g28
I60
sg29
(dp3318
S'TRAVEL'
p3319
I58
sS'ORIENT'
p3320
I2
ssg35
Nsg36
NsbsS'aleft'
p3321
(inltk.probability
FreqDist
p3322
(dp3323
g28
I1
sg29
(dp3324
S'DIR'
p3325
I1
ssg35
Nsg36
NsbsS'form'
p3326
(inltk.probability
FreqDist
p3327
(dp3328
g28
I4
sg29
(dp3329
S'AWAY'
p3330
I3
sS'STRUCT'
p3331
I1
ssg35
Nsg36
NsbsS'forc'
p3332
(inltk.probability
FreqDist
p3333
(dp3334
g28
I4
sg29
(dp3335
S'STRUCT'
p3336
I4
ssg35
Nsg36
NsbsS'poster'
p3337
(inltk.probability
FreqDist
p3338
(dp3339
g28
I14
sg29
(dp3340
S'OBJ'
p3341
I14
ssg35
Nsg36
NsbsS'armi'
p3342
(inltk.probability
FreqDist
p3343
(dp3344
g28
I4
sg29
(dp3345
S'APPEAR'
p3346
I4
ssg35
Nsg36
NsbsS'but'
p3347
(inltk.probability
FreqDist
p3348
(dp3349
g28
I20
sg29
(dp3350
g122
I18
sS'THEN'
p3351
I1
sg672
I1
ssg35
Nsg36
NsbsS'cloth'
p3352
(inltk.probability
FreqDist
p3353
(dp3354
g28
I3
sg29
(dp3355
S'OBJ'
p3356
I3
ssg35
Nsg36
NsbsS'land'
p3357
(inltk.probability
FreqDist
p3358
(dp3359
g28
I1
sg29
(dp3360
S'ARRIVE'
p3361
I1
ssg35
Nsg36
NsbsS'walkway'
p3362
(inltk.probability
FreqDist
p3363
(dp3364
g28
I3
sg29
(dp3365
S'PATH'
p3366
I3
ssg35
Nsg36
NsbsS'line'
p3367
(inltk.probability
FreqDist
p3368
(dp3369
g28
I1
sg29
(dp3370
S'HAS'
p3371
I1
ssg35
Nsg36
NsbsS'ha'
p3372
(inltk.probability
FreqDist
p3373
(dp3374
g28
I172
sg29
(dp3375
S'HAS'
p3376
I171
sg886
I1
ssg35
Nsg36
NsbsS'with'
p3377
(inltk.probability
FreqDist
p3378
(dp3379
g28
I828
sg29
(dp3380
g916
I2
sS'STRUCT'
p3381
I1
sS'CC'
p3382
I4
sS'DETAIL'
p3383
I448
sS'PART'
p3384
I246
sS'COND'
p3385
I121
sS'DIST'
p3386
I1
sS'ARRIVE'
p3387
I5
ssg35
Nsg36
NsbsS'he'
p3388
(inltk.probability
FreqDist
p3389
(dp3390
g28
I2
sg29
(dp3391
S'DET'
p3392
I2
ssg35
Nsg36
NsbsS'consist'
p3393
(inltk.probability
FreqDist
p3394
(dp3395
g28
I1
sg29
(dp3396
S'HAS'
p3397
I1
ssg35
Nsg36
NsbsS'possibl'
p3398
(inltk.probability
FreqDist
p3399
(dp3400
g28
I6
sg29
(dp3401
S'META'
p3402
I1
sS'ORDER'
p3403
I5
ssg35
Nsg36
NsbsS'....'
p3404
(inltk.probability
FreqDist
p3405
(dp3406
g28
I1
sg29
(dp3407
S'S'
I1
ssg35
Nsg36
NsbsS'up'
p3408
(inltk.probability
FreqDist
p3409
(dp3410
g28
I35
sg29
(dp3411
S'LOC'
p3412
I1
sS'DIST'
p3413
I3
sS'UNTIL'
p3414
I1
sS'PASS'
p3415
I3
sS'ALONG'
p3416
I7
sS'ARRIVE'
p3417
I5
sg517
I13
sg518
I2
ssg35
Nsg36
NsbsS'ur'
p3418
(inltk.probability
FreqDist
p3419
(dp3420
g28
I3
sg29
(dp3421
S'DER'
p3422
I1
sS'DET'
p3423
I2
ssg35
Nsg36
NsbsS'conatin'
p3424
(inltk.probability
FreqDist
p3425
(dp3426
g28
I1
sg29
(dp3427
S'HAS'
p3428
I1
ssg35
Nsg36
NsbsS'hatrack'
p3429
(inltk.probability
FreqDist
p3430
(dp3431
g28
I107
sg29
(dp3432
S'OBJ'
p3433
I107
ssg35
Nsg36
NsbsS'grass'
p3434
(inltk.probability
FreqDist
p3435
(dp3436
g28
I74
sg29
(dp3437
S'OBJ'
p3438
I16
sS'APPEAR'
p3439
I58
ssg35
Nsg36
NsbsS'gone'
p3440
(inltk.probability
FreqDist
p3441
(dp3442
g28
I1
sg29
(dp3443
S'TRAVEL'
p3444
I1
ssg35
Nsg36
NsbsS'eifel'
p3445
(inltk.probability
FreqDist
p3446
(dp3447
g28
I1
sg29
(dp3448
S'OBJ'
p3449
I1
ssg35
Nsg36
NsbsS'item'
p3450
(inltk.probability
FreqDist
p3451
(dp3452
g28
I1
sg29
(dp3453
S'OBJ'
p3454
I1
ssg35
Nsg36
NsbsS'pic'
p3455
(inltk.probability
FreqDist
p3456
(dp3457
g28
I1
sg29
(dp3458
S'OBJ'
p3459
I1
ssg35
Nsg36
NsbsS'doesn'
p3460
(inltk.probability
FreqDist
p3461
(dp3462
g28
I1
sg29
(dp3463
S'AUX'
p3464
I1
ssg35
Nsg36
NsbsS'an'
p3465
(inltk.probability
FreqDist
p3466
(dp3467
g28
I204
sg29
(dp3468
g713
I1
sS'DET'
p3469
I203
ssg35
Nsg36
NsbsS'char'
p3470
(inltk.probability
FreqDist
p3471
(dp3472
g28
I1
sg29
(dp3473
S'APPEAR'
p3474
I1
ssg35
Nsg36
NsbsS'as'
p3475
(inltk.probability
FreqDist
p3476
(dp3477
g28
I28
sg29
(dp3478
g2607
I3
sg724
I2
sg185
I8
sS'CC'
p3479
I2
sg2016
I3
sS'COND'
p3480
I10
ssg35
Nsg36
NsbsS'at'
p3481
(inltk.probability
FreqDist
p3482
(dp3483
g28
I811
sg29
(dp3484
S'LOC'
p3485
I771
sS'DET'
p3486
I1
sS'SIDE'
p3487
I11
sS'PART'
p3488
I1
sg497
I1
sS'ARRIVE'
p3489
I13
sS'ORIENT'
p3490
I13
ssg35
Nsg36
NsbsS'face'
p3491
(inltk.probability
FreqDist
p3492
(dp3493
g28
I399
sg29
(dp3494
S'TURN'
p3495
I6
sS'ORIENT'
p3496
I384
sS'AGAINST'
p3497
I9
ssg35
Nsg36
NsbsS'check'
p3498
(inltk.probability
FreqDist
p3499
(dp3500
g28
I1
sg29
(dp3501
S'ORIENT'
p3502
I1
ssg35
Nsg36
NsbsS'probabl'
p3503
(inltk.probability
FreqDist
p3504
(dp3505
g28
I3
sg29
(dp3506
S'APPROX'
p3507
I3
ssg35
Nsg36
NsbsS'again'
p3508
(inltk.probability
FreqDist
p3509
(dp3510
g28
I62
sg29
(dp3511
S'META'
p3512
I61
sS'AGAINST'
p3513
I1
ssg35
Nsg36
NsbsS'dine'
p3514
(inltk.probability
FreqDist
p3515
(dp3516
g28
I6
sg29
(dp3517
S'OBJ'
p3518
I6
ssg35
Nsg36
NsbsS'beyond'
p3519
(inltk.probability
FreqDist
p3520
(dp3521
g28
I5
sg29
(dp3522
S'PAST'
p3523
I5
ssg35
Nsg36
NsbsS'no'
p3524
(inltk.probability
FreqDist
p3525
(dp3526
g28
I37
sg29
(dp3527
S'COUNT'
p3528
I24
sg662
I5
sg1404
I2
sS'DET'
p3529
I6
ssg35
Nsg36
NsbsS'when'
p3530
(inltk.probability
FreqDist
p3531
(dp3532
g28
I129
sg29
(dp3533
S'COND'
p3534
I128
sS'DETAIL'
p3535
I1
ssg35
Nsg36
NsbsS'til'
p3536
(inltk.probability
FreqDist
p3537
(dp3538
g28
I9
sg29
(dp3539
S'UNTIL'
p3540
I9
ssg35
Nsg36
NsbsS'other'
p3541
(inltk.probability
FreqDist
p3542
(dp3543
g28
I46
sg29
(dp3544
S'REF'
p3545
I17
sS'RELDIST'
p3546
I10
sg886
I1
sS'DET'
p3547
I18
ssg35
Nsg36
NsbsS'5'
(inltk.probability
FreqDist
p3548
(dp3549
g28
I140
sg29
(dp3550
S'COUNT'
p3551
I9
sS'P'
I131
ssg35
Nsg36
NsbsS'branch'
p3552
(inltk.probability
FreqDist
p3553
(dp3554
g28
I9
sg29
(dp3555
S'STRUCT'
p3556
I9
ssg35
Nsg36
NsbsS'you'
p3557
(inltk.probability
FreqDist
p3558
(dp3559
g28
I1736
sg29
(dp3560
g724
I1
sS'OBJ'
p3561
I1
sS'DET'
p3562
I13
sS'AGENT'
p3563
I1712
sS'P'
I2
sg767
I7
ssg35
Nsg36
NsbsS'bvlue'
p3564
(inltk.probability
FreqDist
p3565
(dp3566
g28
I1
sg29
(dp3567
S'APPEAR'
p3568
I1
ssg35
Nsg36
NsbsS"'s"
p3569
(inltk.probability
FreqDist
p3570
(dp3571
g28
I1
sg29
(dp3572
g636
I1
ssg35
Nsg36
NsbsS'eiffel'
p3573
(inltk.probability
FreqDist
p3574
(dp3575
g28
I75
sg29
(dp3576
S'OBJ'
p3577
I75
ssg35
Nsg36
NsbsS'stay'
p3578
(inltk.probability
FreqDist
p3579
(dp3580
g28
I6
sg29
(dp3581
S'TRAVEL'
p3582
I3
sS'STOP'
p3583
I1
sS'ORIENT'
p3584
I2
ssg35
Nsg36
NsbsS'corridoor'
p3585
(inltk.probability
FreqDist
p3586
(dp3587
g28
I12
sg29
(dp3588
S'PATH'
p3589
I12
ssg35
Nsg36
NsbsS'U'
(inltk.probability
FreqDist
p3590
(dp3591
g28
I3003
sg29
(dp3592
S''
I1
sg395
I138
sg396
I5
sg397
I87
sg398
I59
sg399
I26
sg400
I7
sg401
I2
sg402
I3
sg403
I47
sg404
I1
sg405
I26
sg406
I57
sg407
I14
sg408
I39
sg409
I180
sg410
I15
sg411
I23
sg412
I21
sg413
I31
sg414
I37
sg415
I1
sg416
I3
sg417
I19
sg418
I8
sg419
I3
sg420
I16
sg421
I52
sg422
I4
sg423
I128
sg424
I14
sg425
I86
sg426
I15
sg427
I9
sg428
I4
sg429
I31
sg430
I1
sg431
I270
sg432
I19
sg433
I7
sg434
I14
sg435
I6
sg436
I28
sS'P'
I16
sS'S'
I620
sg437
I2
sg438
I8
sg439
I2
sg440
I19
sg441
I35
sg442
I11
sg443
I20
sg444
I21
sg445
I2
sg446
I310
sg447
I19
sg448
I44
sg449
I88
sg450
I54
sg451
I28
sg452
I2
sg453
I20
sg454
I24
sg455
I5
sg456
I22
sg457
I22
sg458
I2
sg459
I17
sg460
I33
ssg35
Nsg36
NsbsS'goin'
p3593
(inltk.probability
FreqDist
p3594
(dp3595
g28
I2
sg29
(dp3596
S'TRAVEL'
p3597
I2
ssg35
Nsg36
NsbsS'coat'
p3598
(inltk.probability
FreqDist
p3599
(dp3600
g28
I142
sg29
(dp3601
g1169
I142
ssg35
Nsg36
NsbsS'lead'
p3602
(inltk.probability
FreqDist
p3603
(dp3604
g28
I10
sg29
(dp3605
g130
I3
sS'STRUCT'
p3606
I7
ssg35
Nsg36
NsbsS'lot'
p3607
(inltk.probability
FreqDist
p3608
(dp3609
g28
I1
sg29
(dp3610
S'OBJ'
p3611
I1
ssg35
Nsg36
NsbsS'descript'
p3612
(inltk.probability
FreqDist
p3613
(dp3614
g28
I1
sg29
(dp3615
S'TEXT'
p3616
I1
ssg35
Nsg36
NsbsS'evenli'
p3617
(inltk.probability
FreqDist
p3618
(dp3619
g28
I3
sg29
(dp3620
S'ADV'
p3621
I1
sS'DET'
p3622
I2
ssg35
Nsg36
NsbsS'tricki'
p3623
(inltk.probability
FreqDist
p3624
(dp3625
g28
I1
sg29
(dp3626
g220
I1
ssg35
Nsg36
NsbsS'portion'
p3627
(inltk.probability
FreqDist
p3628
(dp3629
g28
I5
sg29
(dp3630
S'PATHDIR'
p3631
I5
ssg35
Nsg36
NsbsS'u'
(inltk.probability
FreqDist
p3632
(dp3633
g28
I6
sg29
(dp3634
g2785
I2
sS'AGENT'
p3635
I4
ssg35
Nsg36
NsbsS'time'
p3636
(inltk.probability
FreqDist
p3637
(dp3638
g28
I99
sg29
(dp3639
S'RELDIST'
p3640
I1
sS'DIST'
p3641
I98
ssg35
Nsg36
NsbsS'whne'
p3642
(inltk.probability
FreqDist
p3643
(dp3644
g28
I1
sg29
(dp3645
S'COND'
p3646
I1
ssg35
Nsg36
NsbsS'backward'
p3647
(inltk.probability
FreqDist
p3648
(dp3649
g28
I2
sg29
(dp3650
g767
I2
ssg35
Nsg36
Nsbssbsg16
I00
sbI0
ssg8
(dp3651
g10
g11
sg12
g13
ssS'_subtaggers'
p3652
(lp3653
g17
ag6
asg16
I00
sb.